
rv32ui-p-auipc：     文件格式 elf32-littleriscv


Disassembly of section .text.init:

80000000 <_start>:
80000000:	04c0006f          	j	8000004c <reset_vector>

80000004 <loop>:
80000004:	0000006f          	j	80000004 <loop>

80000008 <trap_vector>:
80000008:	34202f73          	csrr	t5,mcause
8000000c:	00800f93          	li	t6,8
80000010:	03ff0863          	beq	t5,t6,80000040 <write_tohost>
80000014:	00900f93          	li	t6,9
80000018:	03ff0463          	beq	t5,t6,80000040 <write_tohost>
8000001c:	00b00f93          	li	t6,11
80000020:	03ff0063          	beq	t5,t6,80000040 <write_tohost>
80000024:	00000f13          	li	t5,0
80000028:	000f0463          	beqz	t5,80000030 <trap_vector+0x28>
8000002c:	000f0067          	jr	t5
80000030:	34202f73          	csrr	t5,mcause
80000034:	000f5463          	bgez	t5,8000003c <handle_exception>
80000038:	0040006f          	j	8000003c <handle_exception>

8000003c <handle_exception>:
8000003c:	5391e193          	ori	gp,gp,1337

80000040 <write_tohost>:
80000040:	00001f17          	auipc	t5,0x1
80000044:	fc3f2023          	sw	gp,-64(t5) # 80001000 <tohost>
80000048:	ff9ff06f          	j	80000040 <write_tohost>

8000004c <reset_vector>:
8000004c:	00000093          	li	ra,0
80000050:	00000113          	li	sp,0
80000054:	00000193          	li	gp,0
80000058:	00000213          	li	tp,0
8000005c:	00000293          	li	t0,0
80000060:	00000313          	li	t1,0
80000064:	00000393          	li	t2,0
80000068:	00000413          	li	s0,0
8000006c:	00000493          	li	s1,0
80000070:	00000513          	li	a0,0
80000074:	00000593          	li	a1,0
80000078:	00000613          	li	a2,0
8000007c:	00000693          	li	a3,0
80000080:	00000713          	li	a4,0
80000084:	00000793          	li	a5,0
80000088:	00000813          	li	a6,0
8000008c:	00000893          	li	a7,0
80000090:	00000913          	li	s2,0
80000094:	00000993          	li	s3,0
80000098:	00000a13          	li	s4,0
8000009c:	00000a93          	li	s5,0
800000a0:	00000b13          	li	s6,0
800000a4:	00000b93          	li	s7,0
800000a8:	00000c13          	li	s8,0
800000ac:	00000c93          	li	s9,0
800000b0:	00000d13          	li	s10,0
800000b4:	00000d93          	li	s11,0
800000b8:	00000e13          	li	t3,0
800000bc:	00000e93          	li	t4,0
800000c0:	00000f13          	li	t5,0
800000c4:	00000f93          	li	t6,0

800000c8 <test_2>:
800000c8:	00200193          	li	gp,2
800000cc:	00000013          	nop
800000d0:	00002517          	auipc	a0,0x2
800000d4:	71c50513          	addi	a0,a0,1820 # 800027ec <_end+0x7ec>
800000d8:	004005ef          	jal	a1,800000dc <test_2+0x14>
800000dc:	fff00613          	li	a2,-1
800000e0:	00c5c5b3          	xor	a1,a1,a2
800000e4:	00158593          	addi	a1,a1,1
800000e8:	00b50533          	add	a0,a0,a1
800000ec:	000023b7          	lui	t2,0x2
800000f0:	71038393          	addi	t2,t2,1808 # 2710 <_start-0x7fffd8f0>
800000f4:	02751c63          	bne	a0,t2,8000012c <fail>

800000f8 <test_3>:
800000f8:	00300193          	li	gp,3
800000fc:	00000013          	nop
80000100:	ffffe517          	auipc	a0,0xffffe
80000104:	8fc50513          	addi	a0,a0,-1796 # 7fffd9fc <_start-0x2604>
80000108:	004005ef          	jal	a1,8000010c <test_3+0x14>
8000010c:	fff00613          	li	a2,-1
80000110:	00c5c5b3          	xor	a1,a1,a2
80000114:	00158593          	addi	a1,a1,1
80000118:	00b50533          	add	a0,a0,a1
8000011c:	ffffe3b7          	lui	t2,0xffffe
80000120:	8f038393          	addi	t2,t2,-1808 # ffffd8f0 <_end+0x7fffb8f0>
80000124:	00751463          	bne	a0,t2,8000012c <fail>
80000128:	00301a63          	bne	zero,gp,8000013c <pass>

8000012c <fail>:
8000012c:	803002b7          	lui	t0,0x80300
80000130:	55500313          	li	t1,1365
80000134:	0062a023          	sw	t1,0(t0) # 80300000 <_end+0x2fe000>
80000138:	ecdff06f          	j	80000004 <loop>

8000013c <pass>:
8000013c:	803002b7          	lui	t0,0x80300
80000140:	66600313          	li	t1,1638
80000144:	0062a023          	sw	t1,0(t0) # 80300000 <_end+0x2fe000>
80000148:	ebdff06f          	j	80000004 <loop>
8000014c:	c0001073          	unimp
80000150:	0000                	unimp
80000152:	0000                	unimp
80000154:	0000                	unimp
80000156:	0000                	unimp
80000158:	0000                	unimp
8000015a:	0000                	unimp
8000015c:	0000                	unimp
8000015e:	0000                	unimp
80000160:	0000                	unimp
80000162:	0000                	unimp
80000164:	0000                	unimp
80000166:	0000                	unimp
80000168:	0000                	unimp
8000016a:	0000                	unimp
8000016c:	0000                	unimp
8000016e:	0000                	unimp
80000170:	0000                	unimp
80000172:	0000                	unimp
80000174:	0000                	unimp
80000176:	0000                	unimp
80000178:	0000                	unimp
8000017a:	0000                	unimp
8000017c:	0000                	unimp
8000017e:	0000                	unimp
