
rv32ui-p-_testall：     文件格式 elf32-littleriscv


Disassembly of section .text.init:

80000000 <_start>:
80000000:	04c0006f          	j	8000004c <reset_vector>

80000004 <loop>:
80000004:	0000006f          	j	80000004 <loop>

80000008 <trap_vector>:
80000008:	34202f73          	csrr	t5,mcause
8000000c:	00800f93          	li	t6,8
80000010:	03ff0863          	beq	t5,t6,80000040 <write_tohost>
80000014:	00900f93          	li	t6,9
80000018:	03ff0463          	beq	t5,t6,80000040 <write_tohost>
8000001c:	00b00f93          	li	t6,11
80000020:	03ff0063          	beq	t5,t6,80000040 <write_tohost>
80000024:	00000f13          	li	t5,0
80000028:	000f0463          	beqz	t5,80000030 <trap_vector+0x28>
8000002c:	000f0067          	jr	t5
80000030:	34202f73          	csrr	t5,mcause
80000034:	000f5463          	bgez	t5,8000003c <handle_exception>
80000038:	0040006f          	j	8000003c <handle_exception>

8000003c <handle_exception>:
8000003c:	5391e193          	ori	gp,gp,1337

80000040 <write_tohost>:
80000040:	00009f17          	auipc	t5,0x9
80000044:	fc3f2023          	sw	gp,-64(t5) # 80009000 <tohost>
80000048:	ff9ff06f          	j	80000040 <write_tohost>

8000004c <reset_vector>:
8000004c:	00000093          	li	ra,0
80000050:	00000113          	li	sp,0
80000054:	00000193          	li	gp,0
80000058:	00000213          	li	tp,0
8000005c:	00000293          	li	t0,0
80000060:	00000313          	li	t1,0
80000064:	00000393          	li	t2,0
80000068:	00000413          	li	s0,0
8000006c:	00000493          	li	s1,0
80000070:	00000513          	li	a0,0
80000074:	00000593          	li	a1,0
80000078:	00000613          	li	a2,0
8000007c:	00000693          	li	a3,0
80000080:	00000713          	li	a4,0
80000084:	00000793          	li	a5,0
80000088:	00000813          	li	a6,0
8000008c:	00000893          	li	a7,0
80000090:	00000913          	li	s2,0
80000094:	00000993          	li	s3,0
80000098:	00000a13          	li	s4,0
8000009c:	00000a93          	li	s5,0
800000a0:	00000b13          	li	s6,0
800000a4:	00000b93          	li	s7,0
800000a8:	00000c13          	li	s8,0
800000ac:	00000c93          	li	s9,0
800000b0:	00000d13          	li	s10,0
800000b4:	00000d93          	li	s11,0
800000b8:	00000e13          	li	t3,0
800000bc:	00000e93          	li	t4,0
800000c0:	00000f13          	li	t5,0
800000c4:	00000f93          	li	t6,0

800000c8 <test_2>:
800000c8:	00200193          	li	gp,2
800000cc:	00000093          	li	ra,0
800000d0:	00000113          	li	sp,0
800000d4:	00208733          	add	a4,ra,sp
800000d8:	00000393          	li	t2,0
800000dc:	00770463          	beq	a4,t2,800000e4 <test_3>
800000e0:	7d80806f          	j	800088b8 <fail>

800000e4 <test_3>:
800000e4:	00300193          	li	gp,3
800000e8:	00100093          	li	ra,1
800000ec:	00100113          	li	sp,1
800000f0:	00208733          	add	a4,ra,sp
800000f4:	00200393          	li	t2,2
800000f8:	00770463          	beq	a4,t2,80000100 <test_4>
800000fc:	7bc0806f          	j	800088b8 <fail>

80000100 <test_4>:
80000100:	00400193          	li	gp,4
80000104:	00300093          	li	ra,3
80000108:	00700113          	li	sp,7
8000010c:	00208733          	add	a4,ra,sp
80000110:	00a00393          	li	t2,10
80000114:	00770463          	beq	a4,t2,8000011c <test_5>
80000118:	7a00806f          	j	800088b8 <fail>

8000011c <test_5>:
8000011c:	00500193          	li	gp,5
80000120:	00000093          	li	ra,0
80000124:	ffff8137          	lui	sp,0xffff8
80000128:	00208733          	add	a4,ra,sp
8000012c:	ffff83b7          	lui	t2,0xffff8
80000130:	00770463          	beq	a4,t2,80000138 <test_6>
80000134:	7840806f          	j	800088b8 <fail>

80000138 <test_6>:
80000138:	00600193          	li	gp,6
8000013c:	800000b7          	lui	ra,0x80000
80000140:	00000113          	li	sp,0
80000144:	00208733          	add	a4,ra,sp
80000148:	800003b7          	lui	t2,0x80000
8000014c:	00770463          	beq	a4,t2,80000154 <test_7>
80000150:	7680806f          	j	800088b8 <fail>

80000154 <test_7>:
80000154:	00700193          	li	gp,7
80000158:	800000b7          	lui	ra,0x80000
8000015c:	ffff8137          	lui	sp,0xffff8
80000160:	00208733          	add	a4,ra,sp
80000164:	7fff83b7          	lui	t2,0x7fff8
80000168:	00770463          	beq	a4,t2,80000170 <test_8>
8000016c:	74c0806f          	j	800088b8 <fail>

80000170 <test_8>:
80000170:	00800193          	li	gp,8
80000174:	00000093          	li	ra,0
80000178:	00008137          	lui	sp,0x8
8000017c:	fff10113          	addi	sp,sp,-1 # 7fff <_start-0x7fff8001>
80000180:	00208733          	add	a4,ra,sp
80000184:	000083b7          	lui	t2,0x8
80000188:	fff38393          	addi	t2,t2,-1 # 7fff <_start-0x7fff8001>
8000018c:	00770463          	beq	a4,t2,80000194 <test_9>
80000190:	7280806f          	j	800088b8 <fail>

80000194 <test_9>:
80000194:	00900193          	li	gp,9
80000198:	800000b7          	lui	ra,0x80000
8000019c:	fff08093          	addi	ra,ra,-1 # 7fffffff <_end+0xffff5f2f>
800001a0:	00000113          	li	sp,0
800001a4:	00208733          	add	a4,ra,sp
800001a8:	800003b7          	lui	t2,0x80000
800001ac:	fff38393          	addi	t2,t2,-1 # 7fffffff <_end+0xffff5f2f>
800001b0:	00770463          	beq	a4,t2,800001b8 <test_10>
800001b4:	7040806f          	j	800088b8 <fail>

800001b8 <test_10>:
800001b8:	00a00193          	li	gp,10
800001bc:	800000b7          	lui	ra,0x80000
800001c0:	fff08093          	addi	ra,ra,-1 # 7fffffff <_end+0xffff5f2f>
800001c4:	00008137          	lui	sp,0x8
800001c8:	fff10113          	addi	sp,sp,-1 # 7fff <_start-0x7fff8001>
800001cc:	00208733          	add	a4,ra,sp
800001d0:	800083b7          	lui	t2,0x80008
800001d4:	ffe38393          	addi	t2,t2,-2 # 80007ffe <_end+0xffffdf2e>
800001d8:	00770463          	beq	a4,t2,800001e0 <test_11>
800001dc:	6dc0806f          	j	800088b8 <fail>

800001e0 <test_11>:
800001e0:	00b00193          	li	gp,11
800001e4:	800000b7          	lui	ra,0x80000
800001e8:	00008137          	lui	sp,0x8
800001ec:	fff10113          	addi	sp,sp,-1 # 7fff <_start-0x7fff8001>
800001f0:	00208733          	add	a4,ra,sp
800001f4:	800083b7          	lui	t2,0x80008
800001f8:	fff38393          	addi	t2,t2,-1 # 80007fff <_end+0xffffdf2f>
800001fc:	00770463          	beq	a4,t2,80000204 <test_12>
80000200:	6b80806f          	j	800088b8 <fail>

80000204 <test_12>:
80000204:	00c00193          	li	gp,12
80000208:	800000b7          	lui	ra,0x80000
8000020c:	fff08093          	addi	ra,ra,-1 # 7fffffff <_end+0xffff5f2f>
80000210:	ffff8137          	lui	sp,0xffff8
80000214:	00208733          	add	a4,ra,sp
80000218:	7fff83b7          	lui	t2,0x7fff8
8000021c:	fff38393          	addi	t2,t2,-1 # 7fff7fff <_start-0x8001>
80000220:	00770463          	beq	a4,t2,80000228 <test_13>
80000224:	6940806f          	j	800088b8 <fail>

80000228 <test_13>:
80000228:	00d00193          	li	gp,13
8000022c:	00000093          	li	ra,0
80000230:	fff00113          	li	sp,-1
80000234:	00208733          	add	a4,ra,sp
80000238:	fff00393          	li	t2,-1
8000023c:	00770463          	beq	a4,t2,80000244 <test_14>
80000240:	6780806f          	j	800088b8 <fail>

80000244 <test_14>:
80000244:	00e00193          	li	gp,14
80000248:	fff00093          	li	ra,-1
8000024c:	00100113          	li	sp,1
80000250:	00208733          	add	a4,ra,sp
80000254:	00000393          	li	t2,0
80000258:	00770463          	beq	a4,t2,80000260 <test_15>
8000025c:	65c0806f          	j	800088b8 <fail>

80000260 <test_15>:
80000260:	00f00193          	li	gp,15
80000264:	fff00093          	li	ra,-1
80000268:	fff00113          	li	sp,-1
8000026c:	00208733          	add	a4,ra,sp
80000270:	ffe00393          	li	t2,-2
80000274:	00770463          	beq	a4,t2,8000027c <test_16>
80000278:	6400806f          	j	800088b8 <fail>

8000027c <test_16>:
8000027c:	01000193          	li	gp,16
80000280:	00100093          	li	ra,1
80000284:	80000137          	lui	sp,0x80000
80000288:	fff10113          	addi	sp,sp,-1 # 7fffffff <_end+0xffff5f2f>
8000028c:	00208733          	add	a4,ra,sp
80000290:	800003b7          	lui	t2,0x80000
80000294:	00770463          	beq	a4,t2,8000029c <test_17>
80000298:	6200806f          	j	800088b8 <fail>

8000029c <test_17>:
8000029c:	01100193          	li	gp,17
800002a0:	00d00093          	li	ra,13
800002a4:	00b00113          	li	sp,11
800002a8:	002080b3          	add	ra,ra,sp
800002ac:	01800393          	li	t2,24
800002b0:	00708463          	beq	ra,t2,800002b8 <test_18>
800002b4:	6040806f          	j	800088b8 <fail>

800002b8 <test_18>:
800002b8:	01200193          	li	gp,18
800002bc:	00e00093          	li	ra,14
800002c0:	00b00113          	li	sp,11
800002c4:	00208133          	add	sp,ra,sp
800002c8:	01900393          	li	t2,25
800002cc:	00710463          	beq	sp,t2,800002d4 <test_19>
800002d0:	5e80806f          	j	800088b8 <fail>

800002d4 <test_19>:
800002d4:	01300193          	li	gp,19
800002d8:	00d00093          	li	ra,13
800002dc:	001080b3          	add	ra,ra,ra
800002e0:	01a00393          	li	t2,26
800002e4:	00708463          	beq	ra,t2,800002ec <test_20>
800002e8:	5d00806f          	j	800088b8 <fail>

800002ec <test_20>:
800002ec:	01400193          	li	gp,20
800002f0:	00000213          	li	tp,0
800002f4:	00d00093          	li	ra,13
800002f8:	00b00113          	li	sp,11
800002fc:	00208733          	add	a4,ra,sp
80000300:	00070313          	mv	t1,a4
80000304:	00120213          	addi	tp,tp,1 # 1 <_start-0x7fffffff>
80000308:	00200293          	li	t0,2
8000030c:	fe5214e3          	bne	tp,t0,800002f4 <test_20+0x8>
80000310:	01800393          	li	t2,24
80000314:	00730463          	beq	t1,t2,8000031c <test_21>
80000318:	5a00806f          	j	800088b8 <fail>

8000031c <test_21>:
8000031c:	01500193          	li	gp,21
80000320:	00000213          	li	tp,0
80000324:	00e00093          	li	ra,14
80000328:	00b00113          	li	sp,11
8000032c:	00208733          	add	a4,ra,sp
80000330:	00000013          	nop
80000334:	00070313          	mv	t1,a4
80000338:	00120213          	addi	tp,tp,1 # 1 <_start-0x7fffffff>
8000033c:	00200293          	li	t0,2
80000340:	fe5212e3          	bne	tp,t0,80000324 <test_21+0x8>
80000344:	01900393          	li	t2,25
80000348:	00730463          	beq	t1,t2,80000350 <test_22>
8000034c:	56c0806f          	j	800088b8 <fail>

80000350 <test_22>:
80000350:	01600193          	li	gp,22
80000354:	00000213          	li	tp,0
80000358:	00f00093          	li	ra,15
8000035c:	00b00113          	li	sp,11
80000360:	00208733          	add	a4,ra,sp
80000364:	00000013          	nop
80000368:	00000013          	nop
8000036c:	00070313          	mv	t1,a4
80000370:	00120213          	addi	tp,tp,1 # 1 <_start-0x7fffffff>
80000374:	00200293          	li	t0,2
80000378:	fe5210e3          	bne	tp,t0,80000358 <test_22+0x8>
8000037c:	01a00393          	li	t2,26
80000380:	00730463          	beq	t1,t2,80000388 <test_23>
80000384:	5340806f          	j	800088b8 <fail>

80000388 <test_23>:
80000388:	01700193          	li	gp,23
8000038c:	00000213          	li	tp,0
80000390:	00d00093          	li	ra,13
80000394:	00b00113          	li	sp,11
80000398:	00208733          	add	a4,ra,sp
8000039c:	00120213          	addi	tp,tp,1 # 1 <_start-0x7fffffff>
800003a0:	00200293          	li	t0,2
800003a4:	fe5216e3          	bne	tp,t0,80000390 <test_23+0x8>
800003a8:	01800393          	li	t2,24
800003ac:	00770463          	beq	a4,t2,800003b4 <test_24>
800003b0:	5080806f          	j	800088b8 <fail>

800003b4 <test_24>:
800003b4:	01800193          	li	gp,24
800003b8:	00000213          	li	tp,0
800003bc:	00e00093          	li	ra,14
800003c0:	00b00113          	li	sp,11
800003c4:	00000013          	nop
800003c8:	00208733          	add	a4,ra,sp
800003cc:	00120213          	addi	tp,tp,1 # 1 <_start-0x7fffffff>
800003d0:	00200293          	li	t0,2
800003d4:	fe5214e3          	bne	tp,t0,800003bc <test_24+0x8>
800003d8:	01900393          	li	t2,25
800003dc:	00770463          	beq	a4,t2,800003e4 <test_25>
800003e0:	4d80806f          	j	800088b8 <fail>

800003e4 <test_25>:
800003e4:	01900193          	li	gp,25
800003e8:	00000213          	li	tp,0
800003ec:	00f00093          	li	ra,15
800003f0:	00b00113          	li	sp,11
800003f4:	00000013          	nop
800003f8:	00000013          	nop
800003fc:	00208733          	add	a4,ra,sp
80000400:	00120213          	addi	tp,tp,1 # 1 <_start-0x7fffffff>
80000404:	00200293          	li	t0,2
80000408:	fe5212e3          	bne	tp,t0,800003ec <test_25+0x8>
8000040c:	01a00393          	li	t2,26
80000410:	00770463          	beq	a4,t2,80000418 <test_26>
80000414:	4a40806f          	j	800088b8 <fail>

80000418 <test_26>:
80000418:	01a00193          	li	gp,26
8000041c:	00000213          	li	tp,0
80000420:	00d00093          	li	ra,13
80000424:	00000013          	nop
80000428:	00b00113          	li	sp,11
8000042c:	00208733          	add	a4,ra,sp
80000430:	00120213          	addi	tp,tp,1 # 1 <_start-0x7fffffff>
80000434:	00200293          	li	t0,2
80000438:	fe5214e3          	bne	tp,t0,80000420 <test_26+0x8>
8000043c:	01800393          	li	t2,24
80000440:	00770463          	beq	a4,t2,80000448 <test_27>
80000444:	4740806f          	j	800088b8 <fail>

80000448 <test_27>:
80000448:	01b00193          	li	gp,27
8000044c:	00000213          	li	tp,0
80000450:	00e00093          	li	ra,14
80000454:	00000013          	nop
80000458:	00b00113          	li	sp,11
8000045c:	00000013          	nop
80000460:	00208733          	add	a4,ra,sp
80000464:	00120213          	addi	tp,tp,1 # 1 <_start-0x7fffffff>
80000468:	00200293          	li	t0,2
8000046c:	fe5212e3          	bne	tp,t0,80000450 <test_27+0x8>
80000470:	01900393          	li	t2,25
80000474:	00770463          	beq	a4,t2,8000047c <test_28>
80000478:	4400806f          	j	800088b8 <fail>

8000047c <test_28>:
8000047c:	01c00193          	li	gp,28
80000480:	00000213          	li	tp,0
80000484:	00f00093          	li	ra,15
80000488:	00000013          	nop
8000048c:	00000013          	nop
80000490:	00b00113          	li	sp,11
80000494:	00208733          	add	a4,ra,sp
80000498:	00120213          	addi	tp,tp,1 # 1 <_start-0x7fffffff>
8000049c:	00200293          	li	t0,2
800004a0:	fe5212e3          	bne	tp,t0,80000484 <test_28+0x8>
800004a4:	01a00393          	li	t2,26
800004a8:	00770463          	beq	a4,t2,800004b0 <test_29>
800004ac:	40c0806f          	j	800088b8 <fail>

800004b0 <test_29>:
800004b0:	01d00193          	li	gp,29
800004b4:	00000213          	li	tp,0
800004b8:	00b00113          	li	sp,11
800004bc:	00d00093          	li	ra,13
800004c0:	00208733          	add	a4,ra,sp
800004c4:	00120213          	addi	tp,tp,1 # 1 <_start-0x7fffffff>
800004c8:	00200293          	li	t0,2
800004cc:	fe5216e3          	bne	tp,t0,800004b8 <test_29+0x8>
800004d0:	01800393          	li	t2,24
800004d4:	00770463          	beq	a4,t2,800004dc <test_30>
800004d8:	3e00806f          	j	800088b8 <fail>

800004dc <test_30>:
800004dc:	01e00193          	li	gp,30
800004e0:	00000213          	li	tp,0
800004e4:	00b00113          	li	sp,11
800004e8:	00e00093          	li	ra,14
800004ec:	00000013          	nop
800004f0:	00208733          	add	a4,ra,sp
800004f4:	00120213          	addi	tp,tp,1 # 1 <_start-0x7fffffff>
800004f8:	00200293          	li	t0,2
800004fc:	fe5214e3          	bne	tp,t0,800004e4 <test_30+0x8>
80000500:	01900393          	li	t2,25
80000504:	00770463          	beq	a4,t2,8000050c <test_31>
80000508:	3b00806f          	j	800088b8 <fail>

8000050c <test_31>:
8000050c:	01f00193          	li	gp,31
80000510:	00000213          	li	tp,0
80000514:	00b00113          	li	sp,11
80000518:	00f00093          	li	ra,15
8000051c:	00000013          	nop
80000520:	00000013          	nop
80000524:	00208733          	add	a4,ra,sp
80000528:	00120213          	addi	tp,tp,1 # 1 <_start-0x7fffffff>
8000052c:	00200293          	li	t0,2
80000530:	fe5212e3          	bne	tp,t0,80000514 <test_31+0x8>
80000534:	01a00393          	li	t2,26
80000538:	00770463          	beq	a4,t2,80000540 <test_32>
8000053c:	37c0806f          	j	800088b8 <fail>

80000540 <test_32>:
80000540:	02000193          	li	gp,32
80000544:	00000213          	li	tp,0
80000548:	00b00113          	li	sp,11
8000054c:	00000013          	nop
80000550:	00d00093          	li	ra,13
80000554:	00208733          	add	a4,ra,sp
80000558:	00120213          	addi	tp,tp,1 # 1 <_start-0x7fffffff>
8000055c:	00200293          	li	t0,2
80000560:	fe5214e3          	bne	tp,t0,80000548 <test_32+0x8>
80000564:	01800393          	li	t2,24
80000568:	00770463          	beq	a4,t2,80000570 <test_33>
8000056c:	34c0806f          	j	800088b8 <fail>

80000570 <test_33>:
80000570:	02100193          	li	gp,33
80000574:	00000213          	li	tp,0
80000578:	00b00113          	li	sp,11
8000057c:	00000013          	nop
80000580:	00e00093          	li	ra,14
80000584:	00000013          	nop
80000588:	00208733          	add	a4,ra,sp
8000058c:	00120213          	addi	tp,tp,1 # 1 <_start-0x7fffffff>
80000590:	00200293          	li	t0,2
80000594:	fe5212e3          	bne	tp,t0,80000578 <test_33+0x8>
80000598:	01900393          	li	t2,25
8000059c:	00770463          	beq	a4,t2,800005a4 <test_34>
800005a0:	3180806f          	j	800088b8 <fail>

800005a4 <test_34>:
800005a4:	02200193          	li	gp,34
800005a8:	00000213          	li	tp,0
800005ac:	00b00113          	li	sp,11
800005b0:	00000013          	nop
800005b4:	00000013          	nop
800005b8:	00f00093          	li	ra,15
800005bc:	00208733          	add	a4,ra,sp
800005c0:	00120213          	addi	tp,tp,1 # 1 <_start-0x7fffffff>
800005c4:	00200293          	li	t0,2
800005c8:	fe5212e3          	bne	tp,t0,800005ac <test_34+0x8>
800005cc:	01a00393          	li	t2,26
800005d0:	00770463          	beq	a4,t2,800005d8 <test_35>
800005d4:	2e40806f          	j	800088b8 <fail>

800005d8 <test_35>:
800005d8:	02300193          	li	gp,35
800005dc:	00f00093          	li	ra,15
800005e0:	00100133          	add	sp,zero,ra
800005e4:	00f00393          	li	t2,15
800005e8:	00710463          	beq	sp,t2,800005f0 <test_36>
800005ec:	2cc0806f          	j	800088b8 <fail>

800005f0 <test_36>:
800005f0:	02400193          	li	gp,36
800005f4:	02000093          	li	ra,32
800005f8:	00008133          	add	sp,ra,zero
800005fc:	02000393          	li	t2,32
80000600:	00710463          	beq	sp,t2,80000608 <test_37>
80000604:	2b40806f          	j	800088b8 <fail>

80000608 <test_37>:
80000608:	02500193          	li	gp,37
8000060c:	000000b3          	add	ra,zero,zero
80000610:	00000393          	li	t2,0
80000614:	00708463          	beq	ra,t2,8000061c <test_38>
80000618:	2a00806f          	j	800088b8 <fail>

8000061c <test_38>:
8000061c:	02600193          	li	gp,38
80000620:	01000093          	li	ra,16
80000624:	01e00113          	li	sp,30
80000628:	00208033          	add	zero,ra,sp
8000062c:	00000393          	li	t2,0
80000630:	00700463          	beq	zero,t2,80000638 <test_102>
80000634:	2840806f          	j	800088b8 <fail>

80000638 <test_102>:
80000638:	06600193          	li	gp,102
8000063c:	00000093          	li	ra,0
80000640:	00008713          	mv	a4,ra
80000644:	00000393          	li	t2,0
80000648:	00770463          	beq	a4,t2,80000650 <test_103>
8000064c:	26c0806f          	j	800088b8 <fail>

80000650 <test_103>:
80000650:	06700193          	li	gp,103
80000654:	00100093          	li	ra,1
80000658:	00108713          	addi	a4,ra,1
8000065c:	00200393          	li	t2,2
80000660:	00770463          	beq	a4,t2,80000668 <test_104>
80000664:	2540806f          	j	800088b8 <fail>

80000668 <test_104>:
80000668:	06800193          	li	gp,104
8000066c:	00300093          	li	ra,3
80000670:	00708713          	addi	a4,ra,7
80000674:	00a00393          	li	t2,10
80000678:	00770463          	beq	a4,t2,80000680 <test_105>
8000067c:	23c0806f          	j	800088b8 <fail>

80000680 <test_105>:
80000680:	06900193          	li	gp,105
80000684:	00000093          	li	ra,0
80000688:	80008713          	addi	a4,ra,-2048
8000068c:	80000393          	li	t2,-2048
80000690:	00770463          	beq	a4,t2,80000698 <test_106>
80000694:	2240806f          	j	800088b8 <fail>

80000698 <test_106>:
80000698:	06a00193          	li	gp,106
8000069c:	800000b7          	lui	ra,0x80000
800006a0:	00008713          	mv	a4,ra
800006a4:	800003b7          	lui	t2,0x80000
800006a8:	00770463          	beq	a4,t2,800006b0 <test_107>
800006ac:	20c0806f          	j	800088b8 <fail>

800006b0 <test_107>:
800006b0:	06b00193          	li	gp,107
800006b4:	800000b7          	lui	ra,0x80000
800006b8:	80008713          	addi	a4,ra,-2048 # 7ffff800 <_end+0xffff5730>
800006bc:	800003b7          	lui	t2,0x80000
800006c0:	80038393          	addi	t2,t2,-2048 # 7ffff800 <_end+0xffff5730>
800006c4:	00770463          	beq	a4,t2,800006cc <test_108>
800006c8:	1f00806f          	j	800088b8 <fail>

800006cc <test_108>:
800006cc:	06c00193          	li	gp,108
800006d0:	00000093          	li	ra,0
800006d4:	7ff08713          	addi	a4,ra,2047
800006d8:	7ff00393          	li	t2,2047
800006dc:	00770463          	beq	a4,t2,800006e4 <test_109>
800006e0:	1d80806f          	j	800088b8 <fail>

800006e4 <test_109>:
800006e4:	06d00193          	li	gp,109
800006e8:	800000b7          	lui	ra,0x80000
800006ec:	fff08093          	addi	ra,ra,-1 # 7fffffff <_end+0xffff5f2f>
800006f0:	00008713          	mv	a4,ra
800006f4:	800003b7          	lui	t2,0x80000
800006f8:	fff38393          	addi	t2,t2,-1 # 7fffffff <_end+0xffff5f2f>
800006fc:	00770463          	beq	a4,t2,80000704 <test_110>
80000700:	1b80806f          	j	800088b8 <fail>

80000704 <test_110>:
80000704:	06e00193          	li	gp,110
80000708:	800000b7          	lui	ra,0x80000
8000070c:	fff08093          	addi	ra,ra,-1 # 7fffffff <_end+0xffff5f2f>
80000710:	7ff08713          	addi	a4,ra,2047
80000714:	800003b7          	lui	t2,0x80000
80000718:	7fe38393          	addi	t2,t2,2046 # 800007fe <_end+0xffff672e>
8000071c:	00770463          	beq	a4,t2,80000724 <test_111>
80000720:	1980806f          	j	800088b8 <fail>

80000724 <test_111>:
80000724:	06f00193          	li	gp,111
80000728:	800000b7          	lui	ra,0x80000
8000072c:	7ff08713          	addi	a4,ra,2047 # 800007ff <_end+0xffff672f>
80000730:	800003b7          	lui	t2,0x80000
80000734:	7ff38393          	addi	t2,t2,2047 # 800007ff <_end+0xffff672f>
80000738:	00770463          	beq	a4,t2,80000740 <test_112>
8000073c:	17c0806f          	j	800088b8 <fail>

80000740 <test_112>:
80000740:	07000193          	li	gp,112
80000744:	800000b7          	lui	ra,0x80000
80000748:	fff08093          	addi	ra,ra,-1 # 7fffffff <_end+0xffff5f2f>
8000074c:	80008713          	addi	a4,ra,-2048
80000750:	7ffff3b7          	lui	t2,0x7ffff
80000754:	7ff38393          	addi	t2,t2,2047 # 7ffff7ff <_start-0x801>
80000758:	00770463          	beq	a4,t2,80000760 <test_113>
8000075c:	15c0806f          	j	800088b8 <fail>

80000760 <test_113>:
80000760:	07100193          	li	gp,113
80000764:	00000093          	li	ra,0
80000768:	fff08713          	addi	a4,ra,-1
8000076c:	fff00393          	li	t2,-1
80000770:	00770463          	beq	a4,t2,80000778 <test_114>
80000774:	1440806f          	j	800088b8 <fail>

80000778 <test_114>:
80000778:	07200193          	li	gp,114
8000077c:	fff00093          	li	ra,-1
80000780:	00108713          	addi	a4,ra,1
80000784:	00000393          	li	t2,0
80000788:	00770463          	beq	a4,t2,80000790 <test_115>
8000078c:	12c0806f          	j	800088b8 <fail>

80000790 <test_115>:
80000790:	07300193          	li	gp,115
80000794:	fff00093          	li	ra,-1
80000798:	fff08713          	addi	a4,ra,-1
8000079c:	ffe00393          	li	t2,-2
800007a0:	00770463          	beq	a4,t2,800007a8 <test_116>
800007a4:	1140806f          	j	800088b8 <fail>

800007a8 <test_116>:
800007a8:	07400193          	li	gp,116
800007ac:	800000b7          	lui	ra,0x80000
800007b0:	fff08093          	addi	ra,ra,-1 # 7fffffff <_end+0xffff5f2f>
800007b4:	00108713          	addi	a4,ra,1
800007b8:	800003b7          	lui	t2,0x80000
800007bc:	00770463          	beq	a4,t2,800007c4 <test_117>
800007c0:	0f80806f          	j	800088b8 <fail>

800007c4 <test_117>:
800007c4:	07500193          	li	gp,117
800007c8:	00d00093          	li	ra,13
800007cc:	00b08093          	addi	ra,ra,11
800007d0:	01800393          	li	t2,24
800007d4:	00708463          	beq	ra,t2,800007dc <test_118>
800007d8:	0e00806f          	j	800088b8 <fail>

800007dc <test_118>:
800007dc:	07600193          	li	gp,118
800007e0:	00000213          	li	tp,0
800007e4:	00d00093          	li	ra,13
800007e8:	00b08713          	addi	a4,ra,11
800007ec:	00070313          	mv	t1,a4
800007f0:	00120213          	addi	tp,tp,1 # 1 <_start-0x7fffffff>
800007f4:	00200293          	li	t0,2
800007f8:	fe5216e3          	bne	tp,t0,800007e4 <test_118+0x8>
800007fc:	01800393          	li	t2,24
80000800:	00730463          	beq	t1,t2,80000808 <test_119>
80000804:	0b40806f          	j	800088b8 <fail>

80000808 <test_119>:
80000808:	07700193          	li	gp,119
8000080c:	00000213          	li	tp,0
80000810:	00d00093          	li	ra,13
80000814:	00a08713          	addi	a4,ra,10
80000818:	00000013          	nop
8000081c:	00070313          	mv	t1,a4
80000820:	00120213          	addi	tp,tp,1 # 1 <_start-0x7fffffff>
80000824:	00200293          	li	t0,2
80000828:	fe5214e3          	bne	tp,t0,80000810 <test_119+0x8>
8000082c:	01700393          	li	t2,23
80000830:	00730463          	beq	t1,t2,80000838 <test_120>
80000834:	0840806f          	j	800088b8 <fail>

80000838 <test_120>:
80000838:	07800193          	li	gp,120
8000083c:	00000213          	li	tp,0
80000840:	00d00093          	li	ra,13
80000844:	00908713          	addi	a4,ra,9
80000848:	00000013          	nop
8000084c:	00000013          	nop
80000850:	00070313          	mv	t1,a4
80000854:	00120213          	addi	tp,tp,1 # 1 <_start-0x7fffffff>
80000858:	00200293          	li	t0,2
8000085c:	fe5212e3          	bne	tp,t0,80000840 <test_120+0x8>
80000860:	01600393          	li	t2,22
80000864:	00730463          	beq	t1,t2,8000086c <test_121>
80000868:	0500806f          	j	800088b8 <fail>

8000086c <test_121>:
8000086c:	07900193          	li	gp,121
80000870:	00000213          	li	tp,0
80000874:	00d00093          	li	ra,13
80000878:	00b08713          	addi	a4,ra,11
8000087c:	00120213          	addi	tp,tp,1 # 1 <_start-0x7fffffff>
80000880:	00200293          	li	t0,2
80000884:	fe5218e3          	bne	tp,t0,80000874 <test_121+0x8>
80000888:	01800393          	li	t2,24
8000088c:	00770463          	beq	a4,t2,80000894 <test_122>
80000890:	0280806f          	j	800088b8 <fail>

80000894 <test_122>:
80000894:	07a00193          	li	gp,122
80000898:	00000213          	li	tp,0
8000089c:	00d00093          	li	ra,13
800008a0:	00000013          	nop
800008a4:	00a08713          	addi	a4,ra,10
800008a8:	00120213          	addi	tp,tp,1 # 1 <_start-0x7fffffff>
800008ac:	00200293          	li	t0,2
800008b0:	fe5216e3          	bne	tp,t0,8000089c <test_122+0x8>
800008b4:	01700393          	li	t2,23
800008b8:	00770463          	beq	a4,t2,800008c0 <test_123>
800008bc:	7fd0706f          	j	800088b8 <fail>

800008c0 <test_123>:
800008c0:	07b00193          	li	gp,123
800008c4:	00000213          	li	tp,0
800008c8:	00d00093          	li	ra,13
800008cc:	00000013          	nop
800008d0:	00000013          	nop
800008d4:	00908713          	addi	a4,ra,9
800008d8:	00120213          	addi	tp,tp,1 # 1 <_start-0x7fffffff>
800008dc:	00200293          	li	t0,2
800008e0:	fe5214e3          	bne	tp,t0,800008c8 <test_123+0x8>
800008e4:	01600393          	li	t2,22
800008e8:	00770463          	beq	a4,t2,800008f0 <test_124>
800008ec:	7cd0706f          	j	800088b8 <fail>

800008f0 <test_124>:
800008f0:	07c00193          	li	gp,124
800008f4:	02000093          	li	ra,32
800008f8:	02000393          	li	t2,32
800008fc:	00708463          	beq	ra,t2,80000904 <test_125>
80000900:	7b90706f          	j	800088b8 <fail>

80000904 <test_125>:
80000904:	07d00193          	li	gp,125
80000908:	02100093          	li	ra,33
8000090c:	03208013          	addi	zero,ra,50
80000910:	00000393          	li	t2,0
80000914:	00700463          	beq	zero,t2,8000091c <test_202>
80000918:	7a10706f          	j	800088b8 <fail>

8000091c <test_202>:
8000091c:	0ca00193          	li	gp,202
80000920:	ff0100b7          	lui	ra,0xff010
80000924:	f0008093          	addi	ra,ra,-256 # ff00ff00 <_end+0x7f005e30>
80000928:	0f0f1137          	lui	sp,0xf0f1
8000092c:	f0f10113          	addi	sp,sp,-241 # f0f0f0f <_start-0x70f0f0f1>
80000930:	0020f733          	and	a4,ra,sp
80000934:	0f0013b7          	lui	t2,0xf001
80000938:	f0038393          	addi	t2,t2,-256 # f000f00 <_start-0x70fff100>
8000093c:	00770463          	beq	a4,t2,80000944 <test_203>
80000940:	7790706f          	j	800088b8 <fail>

80000944 <test_203>:
80000944:	0cb00193          	li	gp,203
80000948:	0ff010b7          	lui	ra,0xff01
8000094c:	ff008093          	addi	ra,ra,-16 # ff00ff0 <_start-0x700ff010>
80000950:	f0f0f137          	lui	sp,0xf0f0f
80000954:	0f010113          	addi	sp,sp,240 # f0f0f0f0 <_end+0x70f05020>
80000958:	0020f733          	and	a4,ra,sp
8000095c:	00f003b7          	lui	t2,0xf00
80000960:	0f038393          	addi	t2,t2,240 # f000f0 <_start-0x7f0fff10>
80000964:	00770463          	beq	a4,t2,8000096c <test_204>
80000968:	7510706f          	j	800088b8 <fail>

8000096c <test_204>:
8000096c:	0cc00193          	li	gp,204
80000970:	00ff00b7          	lui	ra,0xff0
80000974:	0ff08093          	addi	ra,ra,255 # ff00ff <_start-0x7f00ff01>
80000978:	0f0f1137          	lui	sp,0xf0f1
8000097c:	f0f10113          	addi	sp,sp,-241 # f0f0f0f <_start-0x70f0f0f1>
80000980:	0020f733          	and	a4,ra,sp
80000984:	000f03b7          	lui	t2,0xf0
80000988:	00f38393          	addi	t2,t2,15 # f000f <_start-0x7ff0fff1>
8000098c:	00770463          	beq	a4,t2,80000994 <test_205>
80000990:	7290706f          	j	800088b8 <fail>

80000994 <test_205>:
80000994:	0cd00193          	li	gp,205
80000998:	f00ff0b7          	lui	ra,0xf00ff
8000099c:	00f08093          	addi	ra,ra,15 # f00ff00f <_end+0x700f4f3f>
800009a0:	f0f0f137          	lui	sp,0xf0f0f
800009a4:	0f010113          	addi	sp,sp,240 # f0f0f0f0 <_end+0x70f05020>
800009a8:	0020f733          	and	a4,ra,sp
800009ac:	f000f3b7          	lui	t2,0xf000f
800009b0:	00770463          	beq	a4,t2,800009b8 <test_206>
800009b4:	7050706f          	j	800088b8 <fail>

800009b8 <test_206>:
800009b8:	0ce00193          	li	gp,206
800009bc:	ff0100b7          	lui	ra,0xff010
800009c0:	f0008093          	addi	ra,ra,-256 # ff00ff00 <_end+0x7f005e30>
800009c4:	0f0f1137          	lui	sp,0xf0f1
800009c8:	f0f10113          	addi	sp,sp,-241 # f0f0f0f <_start-0x70f0f0f1>
800009cc:	0020f0b3          	and	ra,ra,sp
800009d0:	0f0013b7          	lui	t2,0xf001
800009d4:	f0038393          	addi	t2,t2,-256 # f000f00 <_start-0x70fff100>
800009d8:	00708463          	beq	ra,t2,800009e0 <test_207>
800009dc:	6dd0706f          	j	800088b8 <fail>

800009e0 <test_207>:
800009e0:	0cf00193          	li	gp,207
800009e4:	0ff010b7          	lui	ra,0xff01
800009e8:	ff008093          	addi	ra,ra,-16 # ff00ff0 <_start-0x700ff010>
800009ec:	f0f0f137          	lui	sp,0xf0f0f
800009f0:	0f010113          	addi	sp,sp,240 # f0f0f0f0 <_end+0x70f05020>
800009f4:	0020f133          	and	sp,ra,sp
800009f8:	00f003b7          	lui	t2,0xf00
800009fc:	0f038393          	addi	t2,t2,240 # f000f0 <_start-0x7f0fff10>
80000a00:	00710463          	beq	sp,t2,80000a08 <test_208>
80000a04:	6b50706f          	j	800088b8 <fail>

80000a08 <test_208>:
80000a08:	0d000193          	li	gp,208
80000a0c:	ff0100b7          	lui	ra,0xff010
80000a10:	f0008093          	addi	ra,ra,-256 # ff00ff00 <_end+0x7f005e30>
80000a14:	0010f0b3          	and	ra,ra,ra
80000a18:	ff0103b7          	lui	t2,0xff010
80000a1c:	f0038393          	addi	t2,t2,-256 # ff00ff00 <_end+0x7f005e30>
80000a20:	00708463          	beq	ra,t2,80000a28 <test_209>
80000a24:	6950706f          	j	800088b8 <fail>

80000a28 <test_209>:
80000a28:	0d100193          	li	gp,209
80000a2c:	00000213          	li	tp,0
80000a30:	ff0100b7          	lui	ra,0xff010
80000a34:	f0008093          	addi	ra,ra,-256 # ff00ff00 <_end+0x7f005e30>
80000a38:	0f0f1137          	lui	sp,0xf0f1
80000a3c:	f0f10113          	addi	sp,sp,-241 # f0f0f0f <_start-0x70f0f0f1>
80000a40:	0020f733          	and	a4,ra,sp
80000a44:	00070313          	mv	t1,a4
80000a48:	00120213          	addi	tp,tp,1 # 1 <_start-0x7fffffff>
80000a4c:	00200293          	li	t0,2
80000a50:	fe5210e3          	bne	tp,t0,80000a30 <test_209+0x8>
80000a54:	0f0013b7          	lui	t2,0xf001
80000a58:	f0038393          	addi	t2,t2,-256 # f000f00 <_start-0x70fff100>
80000a5c:	00730463          	beq	t1,t2,80000a64 <test_210>
80000a60:	6590706f          	j	800088b8 <fail>

80000a64 <test_210>:
80000a64:	0d200193          	li	gp,210
80000a68:	00000213          	li	tp,0
80000a6c:	0ff010b7          	lui	ra,0xff01
80000a70:	ff008093          	addi	ra,ra,-16 # ff00ff0 <_start-0x700ff010>
80000a74:	f0f0f137          	lui	sp,0xf0f0f
80000a78:	0f010113          	addi	sp,sp,240 # f0f0f0f0 <_end+0x70f05020>
80000a7c:	0020f733          	and	a4,ra,sp
80000a80:	00000013          	nop
80000a84:	00070313          	mv	t1,a4
80000a88:	00120213          	addi	tp,tp,1 # 1 <_start-0x7fffffff>
80000a8c:	00200293          	li	t0,2
80000a90:	fc521ee3          	bne	tp,t0,80000a6c <test_210+0x8>
80000a94:	00f003b7          	lui	t2,0xf00
80000a98:	0f038393          	addi	t2,t2,240 # f000f0 <_start-0x7f0fff10>
80000a9c:	00730463          	beq	t1,t2,80000aa4 <test_211>
80000aa0:	6190706f          	j	800088b8 <fail>

80000aa4 <test_211>:
80000aa4:	0d300193          	li	gp,211
80000aa8:	00000213          	li	tp,0
80000aac:	00ff00b7          	lui	ra,0xff0
80000ab0:	0ff08093          	addi	ra,ra,255 # ff00ff <_start-0x7f00ff01>
80000ab4:	0f0f1137          	lui	sp,0xf0f1
80000ab8:	f0f10113          	addi	sp,sp,-241 # f0f0f0f <_start-0x70f0f0f1>
80000abc:	0020f733          	and	a4,ra,sp
80000ac0:	00000013          	nop
80000ac4:	00000013          	nop
80000ac8:	00070313          	mv	t1,a4
80000acc:	00120213          	addi	tp,tp,1 # 1 <_start-0x7fffffff>
80000ad0:	00200293          	li	t0,2
80000ad4:	fc521ce3          	bne	tp,t0,80000aac <test_211+0x8>
80000ad8:	000f03b7          	lui	t2,0xf0
80000adc:	00f38393          	addi	t2,t2,15 # f000f <_start-0x7ff0fff1>
80000ae0:	00730463          	beq	t1,t2,80000ae8 <test_212>
80000ae4:	5d50706f          	j	800088b8 <fail>

80000ae8 <test_212>:
80000ae8:	0d400193          	li	gp,212
80000aec:	00000213          	li	tp,0
80000af0:	ff0100b7          	lui	ra,0xff010
80000af4:	f0008093          	addi	ra,ra,-256 # ff00ff00 <_end+0x7f005e30>
80000af8:	0f0f1137          	lui	sp,0xf0f1
80000afc:	f0f10113          	addi	sp,sp,-241 # f0f0f0f <_start-0x70f0f0f1>
80000b00:	0020f733          	and	a4,ra,sp
80000b04:	00120213          	addi	tp,tp,1 # 1 <_start-0x7fffffff>
80000b08:	00200293          	li	t0,2
80000b0c:	fe5212e3          	bne	tp,t0,80000af0 <test_212+0x8>
80000b10:	0f0013b7          	lui	t2,0xf001
80000b14:	f0038393          	addi	t2,t2,-256 # f000f00 <_start-0x70fff100>
80000b18:	00770463          	beq	a4,t2,80000b20 <test_213>
80000b1c:	59d0706f          	j	800088b8 <fail>

80000b20 <test_213>:
80000b20:	0d500193          	li	gp,213
80000b24:	00000213          	li	tp,0
80000b28:	0ff010b7          	lui	ra,0xff01
80000b2c:	ff008093          	addi	ra,ra,-16 # ff00ff0 <_start-0x700ff010>
80000b30:	f0f0f137          	lui	sp,0xf0f0f
80000b34:	0f010113          	addi	sp,sp,240 # f0f0f0f0 <_end+0x70f05020>
80000b38:	00000013          	nop
80000b3c:	0020f733          	and	a4,ra,sp
80000b40:	00120213          	addi	tp,tp,1 # 1 <_start-0x7fffffff>
80000b44:	00200293          	li	t0,2
80000b48:	fe5210e3          	bne	tp,t0,80000b28 <test_213+0x8>
80000b4c:	00f003b7          	lui	t2,0xf00
80000b50:	0f038393          	addi	t2,t2,240 # f000f0 <_start-0x7f0fff10>
80000b54:	00770463          	beq	a4,t2,80000b5c <test_214>
80000b58:	5610706f          	j	800088b8 <fail>

80000b5c <test_214>:
80000b5c:	0d600193          	li	gp,214
80000b60:	00000213          	li	tp,0
80000b64:	00ff00b7          	lui	ra,0xff0
80000b68:	0ff08093          	addi	ra,ra,255 # ff00ff <_start-0x7f00ff01>
80000b6c:	0f0f1137          	lui	sp,0xf0f1
80000b70:	f0f10113          	addi	sp,sp,-241 # f0f0f0f <_start-0x70f0f0f1>
80000b74:	00000013          	nop
80000b78:	00000013          	nop
80000b7c:	0020f733          	and	a4,ra,sp
80000b80:	00120213          	addi	tp,tp,1 # 1 <_start-0x7fffffff>
80000b84:	00200293          	li	t0,2
80000b88:	fc521ee3          	bne	tp,t0,80000b64 <test_214+0x8>
80000b8c:	000f03b7          	lui	t2,0xf0
80000b90:	00f38393          	addi	t2,t2,15 # f000f <_start-0x7ff0fff1>
80000b94:	00770463          	beq	a4,t2,80000b9c <test_215>
80000b98:	5210706f          	j	800088b8 <fail>

80000b9c <test_215>:
80000b9c:	0d700193          	li	gp,215
80000ba0:	00000213          	li	tp,0
80000ba4:	ff0100b7          	lui	ra,0xff010
80000ba8:	f0008093          	addi	ra,ra,-256 # ff00ff00 <_end+0x7f005e30>
80000bac:	00000013          	nop
80000bb0:	0f0f1137          	lui	sp,0xf0f1
80000bb4:	f0f10113          	addi	sp,sp,-241 # f0f0f0f <_start-0x70f0f0f1>
80000bb8:	0020f733          	and	a4,ra,sp
80000bbc:	00120213          	addi	tp,tp,1 # 1 <_start-0x7fffffff>
80000bc0:	00200293          	li	t0,2
80000bc4:	fe5210e3          	bne	tp,t0,80000ba4 <test_215+0x8>
80000bc8:	0f0013b7          	lui	t2,0xf001
80000bcc:	f0038393          	addi	t2,t2,-256 # f000f00 <_start-0x70fff100>
80000bd0:	00770463          	beq	a4,t2,80000bd8 <test_216>
80000bd4:	4e50706f          	j	800088b8 <fail>

80000bd8 <test_216>:
80000bd8:	0d800193          	li	gp,216
80000bdc:	00000213          	li	tp,0
80000be0:	0ff010b7          	lui	ra,0xff01
80000be4:	ff008093          	addi	ra,ra,-16 # ff00ff0 <_start-0x700ff010>
80000be8:	00000013          	nop
80000bec:	f0f0f137          	lui	sp,0xf0f0f
80000bf0:	0f010113          	addi	sp,sp,240 # f0f0f0f0 <_end+0x70f05020>
80000bf4:	00000013          	nop
80000bf8:	0020f733          	and	a4,ra,sp
80000bfc:	00120213          	addi	tp,tp,1 # 1 <_start-0x7fffffff>
80000c00:	00200293          	li	t0,2
80000c04:	fc521ee3          	bne	tp,t0,80000be0 <test_216+0x8>
80000c08:	00f003b7          	lui	t2,0xf00
80000c0c:	0f038393          	addi	t2,t2,240 # f000f0 <_start-0x7f0fff10>
80000c10:	00770463          	beq	a4,t2,80000c18 <test_217>
80000c14:	4a50706f          	j	800088b8 <fail>

80000c18 <test_217>:
80000c18:	0d900193          	li	gp,217
80000c1c:	00000213          	li	tp,0
80000c20:	00ff00b7          	lui	ra,0xff0
80000c24:	0ff08093          	addi	ra,ra,255 # ff00ff <_start-0x7f00ff01>
80000c28:	00000013          	nop
80000c2c:	00000013          	nop
80000c30:	0f0f1137          	lui	sp,0xf0f1
80000c34:	f0f10113          	addi	sp,sp,-241 # f0f0f0f <_start-0x70f0f0f1>
80000c38:	0020f733          	and	a4,ra,sp
80000c3c:	00120213          	addi	tp,tp,1 # 1 <_start-0x7fffffff>
80000c40:	00200293          	li	t0,2
80000c44:	fc521ee3          	bne	tp,t0,80000c20 <test_217+0x8>
80000c48:	000f03b7          	lui	t2,0xf0
80000c4c:	00f38393          	addi	t2,t2,15 # f000f <_start-0x7ff0fff1>
80000c50:	00770463          	beq	a4,t2,80000c58 <test_218>
80000c54:	4650706f          	j	800088b8 <fail>

80000c58 <test_218>:
80000c58:	0da00193          	li	gp,218
80000c5c:	00000213          	li	tp,0
80000c60:	0f0f1137          	lui	sp,0xf0f1
80000c64:	f0f10113          	addi	sp,sp,-241 # f0f0f0f <_start-0x70f0f0f1>
80000c68:	ff0100b7          	lui	ra,0xff010
80000c6c:	f0008093          	addi	ra,ra,-256 # ff00ff00 <_end+0x7f005e30>
80000c70:	0020f733          	and	a4,ra,sp
80000c74:	00120213          	addi	tp,tp,1 # 1 <_start-0x7fffffff>
80000c78:	00200293          	li	t0,2
80000c7c:	fe5212e3          	bne	tp,t0,80000c60 <test_218+0x8>
80000c80:	0f0013b7          	lui	t2,0xf001
80000c84:	f0038393          	addi	t2,t2,-256 # f000f00 <_start-0x70fff100>
80000c88:	00770463          	beq	a4,t2,80000c90 <test_219>
80000c8c:	42d0706f          	j	800088b8 <fail>

80000c90 <test_219>:
80000c90:	0db00193          	li	gp,219
80000c94:	00000213          	li	tp,0
80000c98:	f0f0f137          	lui	sp,0xf0f0f
80000c9c:	0f010113          	addi	sp,sp,240 # f0f0f0f0 <_end+0x70f05020>
80000ca0:	0ff010b7          	lui	ra,0xff01
80000ca4:	ff008093          	addi	ra,ra,-16 # ff00ff0 <_start-0x700ff010>
80000ca8:	00000013          	nop
80000cac:	0020f733          	and	a4,ra,sp
80000cb0:	00120213          	addi	tp,tp,1 # 1 <_start-0x7fffffff>
80000cb4:	00200293          	li	t0,2
80000cb8:	fe5210e3          	bne	tp,t0,80000c98 <test_219+0x8>
80000cbc:	00f003b7          	lui	t2,0xf00
80000cc0:	0f038393          	addi	t2,t2,240 # f000f0 <_start-0x7f0fff10>
80000cc4:	00770463          	beq	a4,t2,80000ccc <test_220>
80000cc8:	3f10706f          	j	800088b8 <fail>

80000ccc <test_220>:
80000ccc:	0dc00193          	li	gp,220
80000cd0:	00000213          	li	tp,0
80000cd4:	0f0f1137          	lui	sp,0xf0f1
80000cd8:	f0f10113          	addi	sp,sp,-241 # f0f0f0f <_start-0x70f0f0f1>
80000cdc:	00ff00b7          	lui	ra,0xff0
80000ce0:	0ff08093          	addi	ra,ra,255 # ff00ff <_start-0x7f00ff01>
80000ce4:	00000013          	nop
80000ce8:	00000013          	nop
80000cec:	0020f733          	and	a4,ra,sp
80000cf0:	00120213          	addi	tp,tp,1 # 1 <_start-0x7fffffff>
80000cf4:	00200293          	li	t0,2
80000cf8:	fc521ee3          	bne	tp,t0,80000cd4 <test_220+0x8>
80000cfc:	000f03b7          	lui	t2,0xf0
80000d00:	00f38393          	addi	t2,t2,15 # f000f <_start-0x7ff0fff1>
80000d04:	00770463          	beq	a4,t2,80000d0c <test_221>
80000d08:	3b10706f          	j	800088b8 <fail>

80000d0c <test_221>:
80000d0c:	0dd00193          	li	gp,221
80000d10:	00000213          	li	tp,0
80000d14:	0f0f1137          	lui	sp,0xf0f1
80000d18:	f0f10113          	addi	sp,sp,-241 # f0f0f0f <_start-0x70f0f0f1>
80000d1c:	00000013          	nop
80000d20:	ff0100b7          	lui	ra,0xff010
80000d24:	f0008093          	addi	ra,ra,-256 # ff00ff00 <_end+0x7f005e30>
80000d28:	0020f733          	and	a4,ra,sp
80000d2c:	00120213          	addi	tp,tp,1 # 1 <_start-0x7fffffff>
80000d30:	00200293          	li	t0,2
80000d34:	fe5210e3          	bne	tp,t0,80000d14 <test_221+0x8>
80000d38:	0f0013b7          	lui	t2,0xf001
80000d3c:	f0038393          	addi	t2,t2,-256 # f000f00 <_start-0x70fff100>
80000d40:	00770463          	beq	a4,t2,80000d48 <test_222>
80000d44:	3750706f          	j	800088b8 <fail>

80000d48 <test_222>:
80000d48:	0de00193          	li	gp,222
80000d4c:	00000213          	li	tp,0
80000d50:	f0f0f137          	lui	sp,0xf0f0f
80000d54:	0f010113          	addi	sp,sp,240 # f0f0f0f0 <_end+0x70f05020>
80000d58:	00000013          	nop
80000d5c:	0ff010b7          	lui	ra,0xff01
80000d60:	ff008093          	addi	ra,ra,-16 # ff00ff0 <_start-0x700ff010>
80000d64:	00000013          	nop
80000d68:	0020f733          	and	a4,ra,sp
80000d6c:	00120213          	addi	tp,tp,1 # 1 <_start-0x7fffffff>
80000d70:	00200293          	li	t0,2
80000d74:	fc521ee3          	bne	tp,t0,80000d50 <test_222+0x8>
80000d78:	00f003b7          	lui	t2,0xf00
80000d7c:	0f038393          	addi	t2,t2,240 # f000f0 <_start-0x7f0fff10>
80000d80:	00770463          	beq	a4,t2,80000d88 <test_223>
80000d84:	3350706f          	j	800088b8 <fail>

80000d88 <test_223>:
80000d88:	0df00193          	li	gp,223
80000d8c:	00000213          	li	tp,0
80000d90:	0f0f1137          	lui	sp,0xf0f1
80000d94:	f0f10113          	addi	sp,sp,-241 # f0f0f0f <_start-0x70f0f0f1>
80000d98:	00000013          	nop
80000d9c:	00000013          	nop
80000da0:	00ff00b7          	lui	ra,0xff0
80000da4:	0ff08093          	addi	ra,ra,255 # ff00ff <_start-0x7f00ff01>
80000da8:	0020f733          	and	a4,ra,sp
80000dac:	00120213          	addi	tp,tp,1 # 1 <_start-0x7fffffff>
80000db0:	00200293          	li	t0,2
80000db4:	fc521ee3          	bne	tp,t0,80000d90 <test_223+0x8>
80000db8:	000f03b7          	lui	t2,0xf0
80000dbc:	00f38393          	addi	t2,t2,15 # f000f <_start-0x7ff0fff1>
80000dc0:	00770463          	beq	a4,t2,80000dc8 <test_224>
80000dc4:	2f50706f          	j	800088b8 <fail>

80000dc8 <test_224>:
80000dc8:	0e000193          	li	gp,224
80000dcc:	ff0100b7          	lui	ra,0xff010
80000dd0:	f0008093          	addi	ra,ra,-256 # ff00ff00 <_end+0x7f005e30>
80000dd4:	00107133          	and	sp,zero,ra
80000dd8:	00000393          	li	t2,0
80000ddc:	00710463          	beq	sp,t2,80000de4 <test_225>
80000de0:	2d90706f          	j	800088b8 <fail>

80000de4 <test_225>:
80000de4:	0e100193          	li	gp,225
80000de8:	00ff00b7          	lui	ra,0xff0
80000dec:	0ff08093          	addi	ra,ra,255 # ff00ff <_start-0x7f00ff01>
80000df0:	0000f133          	and	sp,ra,zero
80000df4:	00000393          	li	t2,0
80000df8:	00710463          	beq	sp,t2,80000e00 <test_226>
80000dfc:	2bd0706f          	j	800088b8 <fail>

80000e00 <test_226>:
80000e00:	0e200193          	li	gp,226
80000e04:	000070b3          	and	ra,zero,zero
80000e08:	00000393          	li	t2,0
80000e0c:	00708463          	beq	ra,t2,80000e14 <test_227>
80000e10:	2a90706f          	j	800088b8 <fail>

80000e14 <test_227>:
80000e14:	0e300193          	li	gp,227
80000e18:	111110b7          	lui	ra,0x11111
80000e1c:	11108093          	addi	ra,ra,273 # 11111111 <_start-0x6eeeeeef>
80000e20:	22222137          	lui	sp,0x22222
80000e24:	22210113          	addi	sp,sp,546 # 22222222 <_start-0x5dddddde>
80000e28:	0020f033          	and	zero,ra,sp
80000e2c:	00000393          	li	t2,0
80000e30:	00700463          	beq	zero,t2,80000e38 <test_302>
80000e34:	2850706f          	j	800088b8 <fail>

80000e38 <test_302>:
80000e38:	12e00193          	li	gp,302
80000e3c:	ff0100b7          	lui	ra,0xff010
80000e40:	f0008093          	addi	ra,ra,-256 # ff00ff00 <_end+0x7f005e30>
80000e44:	f0f0f713          	andi	a4,ra,-241
80000e48:	ff0103b7          	lui	t2,0xff010
80000e4c:	f0038393          	addi	t2,t2,-256 # ff00ff00 <_end+0x7f005e30>
80000e50:	00770463          	beq	a4,t2,80000e58 <test_303>
80000e54:	2650706f          	j	800088b8 <fail>

80000e58 <test_303>:
80000e58:	12f00193          	li	gp,303
80000e5c:	0ff010b7          	lui	ra,0xff01
80000e60:	ff008093          	addi	ra,ra,-16 # ff00ff0 <_start-0x700ff010>
80000e64:	0f00f713          	andi	a4,ra,240
80000e68:	0f000393          	li	t2,240
80000e6c:	00770463          	beq	a4,t2,80000e74 <test_304>
80000e70:	2490706f          	j	800088b8 <fail>

80000e74 <test_304>:
80000e74:	13000193          	li	gp,304
80000e78:	00ff00b7          	lui	ra,0xff0
80000e7c:	0ff08093          	addi	ra,ra,255 # ff00ff <_start-0x7f00ff01>
80000e80:	70f0f713          	andi	a4,ra,1807
80000e84:	00f00393          	li	t2,15
80000e88:	00770463          	beq	a4,t2,80000e90 <test_305>
80000e8c:	22d0706f          	j	800088b8 <fail>

80000e90 <test_305>:
80000e90:	13100193          	li	gp,305
80000e94:	f00ff0b7          	lui	ra,0xf00ff
80000e98:	00f08093          	addi	ra,ra,15 # f00ff00f <_end+0x700f4f3f>
80000e9c:	0f00f713          	andi	a4,ra,240
80000ea0:	00000393          	li	t2,0
80000ea4:	00770463          	beq	a4,t2,80000eac <test_306>
80000ea8:	2110706f          	j	800088b8 <fail>

80000eac <test_306>:
80000eac:	13200193          	li	gp,306
80000eb0:	ff0100b7          	lui	ra,0xff010
80000eb4:	f0008093          	addi	ra,ra,-256 # ff00ff00 <_end+0x7f005e30>
80000eb8:	0f00f093          	andi	ra,ra,240
80000ebc:	00000393          	li	t2,0
80000ec0:	00708463          	beq	ra,t2,80000ec8 <test_307>
80000ec4:	1f50706f          	j	800088b8 <fail>

80000ec8 <test_307>:
80000ec8:	13300193          	li	gp,307
80000ecc:	00000213          	li	tp,0
80000ed0:	0ff010b7          	lui	ra,0xff01
80000ed4:	ff008093          	addi	ra,ra,-16 # ff00ff0 <_start-0x700ff010>
80000ed8:	70f0f713          	andi	a4,ra,1807
80000edc:	00070313          	mv	t1,a4
80000ee0:	00120213          	addi	tp,tp,1 # 1 <_start-0x7fffffff>
80000ee4:	00200293          	li	t0,2
80000ee8:	fe5214e3          	bne	tp,t0,80000ed0 <test_307+0x8>
80000eec:	70000393          	li	t2,1792
80000ef0:	00730463          	beq	t1,t2,80000ef8 <test_308>
80000ef4:	1c50706f          	j	800088b8 <fail>

80000ef8 <test_308>:
80000ef8:	13400193          	li	gp,308
80000efc:	00000213          	li	tp,0
80000f00:	00ff00b7          	lui	ra,0xff0
80000f04:	0ff08093          	addi	ra,ra,255 # ff00ff <_start-0x7f00ff01>
80000f08:	0f00f713          	andi	a4,ra,240
80000f0c:	00000013          	nop
80000f10:	00070313          	mv	t1,a4
80000f14:	00120213          	addi	tp,tp,1 # 1 <_start-0x7fffffff>
80000f18:	00200293          	li	t0,2
80000f1c:	fe5212e3          	bne	tp,t0,80000f00 <test_308+0x8>
80000f20:	0f000393          	li	t2,240
80000f24:	00730463          	beq	t1,t2,80000f2c <test_309>
80000f28:	1910706f          	j	800088b8 <fail>

80000f2c <test_309>:
80000f2c:	13500193          	li	gp,309
80000f30:	00000213          	li	tp,0
80000f34:	f00ff0b7          	lui	ra,0xf00ff
80000f38:	00f08093          	addi	ra,ra,15 # f00ff00f <_end+0x700f4f3f>
80000f3c:	f0f0f713          	andi	a4,ra,-241
80000f40:	00000013          	nop
80000f44:	00000013          	nop
80000f48:	00070313          	mv	t1,a4
80000f4c:	00120213          	addi	tp,tp,1 # 1 <_start-0x7fffffff>
80000f50:	00200293          	li	t0,2
80000f54:	fe5210e3          	bne	tp,t0,80000f34 <test_309+0x8>
80000f58:	f00ff3b7          	lui	t2,0xf00ff
80000f5c:	00f38393          	addi	t2,t2,15 # f00ff00f <_end+0x700f4f3f>
80000f60:	00730463          	beq	t1,t2,80000f68 <test_310>
80000f64:	1550706f          	j	800088b8 <fail>

80000f68 <test_310>:
80000f68:	13600193          	li	gp,310
80000f6c:	00000213          	li	tp,0
80000f70:	0ff010b7          	lui	ra,0xff01
80000f74:	ff008093          	addi	ra,ra,-16 # ff00ff0 <_start-0x700ff010>
80000f78:	70f0f713          	andi	a4,ra,1807
80000f7c:	00120213          	addi	tp,tp,1 # 1 <_start-0x7fffffff>
80000f80:	00200293          	li	t0,2
80000f84:	fe5216e3          	bne	tp,t0,80000f70 <test_310+0x8>
80000f88:	70000393          	li	t2,1792
80000f8c:	00770463          	beq	a4,t2,80000f94 <test_311>
80000f90:	1290706f          	j	800088b8 <fail>

80000f94 <test_311>:
80000f94:	13700193          	li	gp,311
80000f98:	00000213          	li	tp,0
80000f9c:	00ff00b7          	lui	ra,0xff0
80000fa0:	0ff08093          	addi	ra,ra,255 # ff00ff <_start-0x7f00ff01>
80000fa4:	00000013          	nop
80000fa8:	0f00f713          	andi	a4,ra,240
80000fac:	00120213          	addi	tp,tp,1 # 1 <_start-0x7fffffff>
80000fb0:	00200293          	li	t0,2
80000fb4:	fe5214e3          	bne	tp,t0,80000f9c <test_311+0x8>
80000fb8:	0f000393          	li	t2,240
80000fbc:	00770463          	beq	a4,t2,80000fc4 <test_312>
80000fc0:	0f90706f          	j	800088b8 <fail>

80000fc4 <test_312>:
80000fc4:	13800193          	li	gp,312
80000fc8:	00000213          	li	tp,0
80000fcc:	f00ff0b7          	lui	ra,0xf00ff
80000fd0:	00f08093          	addi	ra,ra,15 # f00ff00f <_end+0x700f4f3f>
80000fd4:	00000013          	nop
80000fd8:	00000013          	nop
80000fdc:	70f0f713          	andi	a4,ra,1807
80000fe0:	00120213          	addi	tp,tp,1 # 1 <_start-0x7fffffff>
80000fe4:	00200293          	li	t0,2
80000fe8:	fe5212e3          	bne	tp,t0,80000fcc <test_312+0x8>
80000fec:	00f00393          	li	t2,15
80000ff0:	00770463          	beq	a4,t2,80000ff8 <test_313>
80000ff4:	0c50706f          	j	800088b8 <fail>

80000ff8 <test_313>:
80000ff8:	13900193          	li	gp,313
80000ffc:	0f007093          	andi	ra,zero,240
80001000:	00000393          	li	t2,0
80001004:	00708463          	beq	ra,t2,8000100c <test_314>
80001008:	0b10706f          	j	800088b8 <fail>

8000100c <test_314>:
8000100c:	13a00193          	li	gp,314
80001010:	00ff00b7          	lui	ra,0xff0
80001014:	0ff08093          	addi	ra,ra,255 # ff00ff <_start-0x7f00ff01>
80001018:	70f0f013          	andi	zero,ra,1807
8000101c:	00000393          	li	t2,0
80001020:	00700463          	beq	zero,t2,80001028 <test_402>
80001024:	0950706f          	j	800088b8 <fail>

80001028 <test_402>:
80001028:	19200193          	li	gp,402
8000102c:	00000013          	nop
80001030:	00002517          	auipc	a0,0x2
80001034:	71c50513          	addi	a0,a0,1820 # 8000374c <test_1807+0x20>
80001038:	004005ef          	jal	a1,8000103c <test_402+0x14>
8000103c:	40b50533          	sub	a0,a0,a1
80001040:	000023b7          	lui	t2,0x2
80001044:	71038393          	addi	t2,t2,1808 # 2710 <_start-0x7fffd8f0>
80001048:	00750463          	beq	a0,t2,80001050 <test_403>
8000104c:	06d0706f          	j	800088b8 <fail>

80001050 <test_403>:
80001050:	19300193          	li	gp,403
80001054:	00000013          	nop
80001058:	ffffe517          	auipc	a0,0xffffe
8000105c:	8fc50513          	addi	a0,a0,-1796 # 7fffe954 <_start-0x16ac>
80001060:	004005ef          	jal	a1,80001064 <test_403+0x14>
80001064:	40b50533          	sub	a0,a0,a1
80001068:	ffffe3b7          	lui	t2,0xffffe
8000106c:	8f038393          	addi	t2,t2,-1808 # ffffd8f0 <_end+0x7fff3820>
80001070:	00750463          	beq	a0,t2,80001078 <test_502>
80001074:	0450706f          	j	800088b8 <fail>

80001078 <test_502>:
80001078:	1f600193          	li	gp,502
8000107c:	00000093          	li	ra,0
80001080:	00000113          	li	sp,0
80001084:	00208863          	beq	ra,sp,80001094 <test_502+0x1c>
80001088:	00300463          	beq	zero,gp,80001090 <test_502+0x18>
8000108c:	02d0706f          	j	800088b8 <fail>
80001090:	00301863          	bne	zero,gp,800010a0 <test_503>
80001094:	fe208ee3          	beq	ra,sp,80001090 <test_502+0x18>
80001098:	00300463          	beq	zero,gp,800010a0 <test_503>
8000109c:	01d0706f          	j	800088b8 <fail>

800010a0 <test_503>:
800010a0:	1f700193          	li	gp,503
800010a4:	00100093          	li	ra,1
800010a8:	00100113          	li	sp,1
800010ac:	00208863          	beq	ra,sp,800010bc <test_503+0x1c>
800010b0:	00300463          	beq	zero,gp,800010b8 <test_503+0x18>
800010b4:	0050706f          	j	800088b8 <fail>
800010b8:	00301863          	bne	zero,gp,800010c8 <test_504>
800010bc:	fe208ee3          	beq	ra,sp,800010b8 <test_503+0x18>
800010c0:	00300463          	beq	zero,gp,800010c8 <test_504>
800010c4:	7f40706f          	j	800088b8 <fail>

800010c8 <test_504>:
800010c8:	1f800193          	li	gp,504
800010cc:	fff00093          	li	ra,-1
800010d0:	fff00113          	li	sp,-1
800010d4:	00208863          	beq	ra,sp,800010e4 <test_504+0x1c>
800010d8:	00300463          	beq	zero,gp,800010e0 <test_504+0x18>
800010dc:	7dc0706f          	j	800088b8 <fail>
800010e0:	00301863          	bne	zero,gp,800010f0 <test_505>
800010e4:	fe208ee3          	beq	ra,sp,800010e0 <test_504+0x18>
800010e8:	00300463          	beq	zero,gp,800010f0 <test_505>
800010ec:	7cc0706f          	j	800088b8 <fail>

800010f0 <test_505>:
800010f0:	1f900193          	li	gp,505
800010f4:	00000093          	li	ra,0
800010f8:	00100113          	li	sp,1
800010fc:	00208463          	beq	ra,sp,80001104 <test_505+0x14>
80001100:	00301663          	bne	zero,gp,8000110c <test_505+0x1c>
80001104:	00300463          	beq	zero,gp,8000110c <test_505+0x1c>
80001108:	7b00706f          	j	800088b8 <fail>
8000110c:	fe208ce3          	beq	ra,sp,80001104 <test_505+0x14>

80001110 <test_506>:
80001110:	1fa00193          	li	gp,506
80001114:	00100093          	li	ra,1
80001118:	00000113          	li	sp,0
8000111c:	00208463          	beq	ra,sp,80001124 <test_506+0x14>
80001120:	00301663          	bne	zero,gp,8000112c <test_506+0x1c>
80001124:	00300463          	beq	zero,gp,8000112c <test_506+0x1c>
80001128:	7900706f          	j	800088b8 <fail>
8000112c:	fe208ce3          	beq	ra,sp,80001124 <test_506+0x14>

80001130 <test_507>:
80001130:	1fb00193          	li	gp,507
80001134:	fff00093          	li	ra,-1
80001138:	00100113          	li	sp,1
8000113c:	00208463          	beq	ra,sp,80001144 <test_507+0x14>
80001140:	00301663          	bne	zero,gp,8000114c <test_507+0x1c>
80001144:	00300463          	beq	zero,gp,8000114c <test_507+0x1c>
80001148:	7700706f          	j	800088b8 <fail>
8000114c:	fe208ce3          	beq	ra,sp,80001144 <test_507+0x14>

80001150 <test_508>:
80001150:	1fc00193          	li	gp,508
80001154:	00100093          	li	ra,1
80001158:	fff00113          	li	sp,-1
8000115c:	00208463          	beq	ra,sp,80001164 <test_508+0x14>
80001160:	00301663          	bne	zero,gp,8000116c <test_508+0x1c>
80001164:	00300463          	beq	zero,gp,8000116c <test_508+0x1c>
80001168:	7500706f          	j	800088b8 <fail>
8000116c:	fe208ce3          	beq	ra,sp,80001164 <test_508+0x14>

80001170 <test_509>:
80001170:	1fd00193          	li	gp,509
80001174:	00000213          	li	tp,0
80001178:	00000093          	li	ra,0
8000117c:	fff00113          	li	sp,-1
80001180:	00209463          	bne	ra,sp,80001188 <test_509+0x18>
80001184:	7340706f          	j	800088b8 <fail>
80001188:	00120213          	addi	tp,tp,1 # 1 <_start-0x7fffffff>
8000118c:	00200293          	li	t0,2
80001190:	fe5214e3          	bne	tp,t0,80001178 <test_509+0x8>

80001194 <test_510>:
80001194:	1fe00193          	li	gp,510
80001198:	00000213          	li	tp,0
8000119c:	00000093          	li	ra,0
800011a0:	fff00113          	li	sp,-1
800011a4:	00000013          	nop
800011a8:	00209463          	bne	ra,sp,800011b0 <test_510+0x1c>
800011ac:	70c0706f          	j	800088b8 <fail>
800011b0:	00120213          	addi	tp,tp,1 # 1 <_start-0x7fffffff>
800011b4:	00200293          	li	t0,2
800011b8:	fe5212e3          	bne	tp,t0,8000119c <test_510+0x8>

800011bc <test_511>:
800011bc:	1ff00193          	li	gp,511
800011c0:	00000213          	li	tp,0
800011c4:	00000093          	li	ra,0
800011c8:	fff00113          	li	sp,-1
800011cc:	00000013          	nop
800011d0:	00000013          	nop
800011d4:	00209463          	bne	ra,sp,800011dc <test_511+0x20>
800011d8:	6e00706f          	j	800088b8 <fail>
800011dc:	00120213          	addi	tp,tp,1 # 1 <_start-0x7fffffff>
800011e0:	00200293          	li	t0,2
800011e4:	fe5210e3          	bne	tp,t0,800011c4 <test_511+0x8>

800011e8 <test_512>:
800011e8:	20000193          	li	gp,512
800011ec:	00000213          	li	tp,0
800011f0:	00000093          	li	ra,0
800011f4:	00000013          	nop
800011f8:	fff00113          	li	sp,-1
800011fc:	00209463          	bne	ra,sp,80001204 <test_512+0x1c>
80001200:	6b80706f          	j	800088b8 <fail>
80001204:	00120213          	addi	tp,tp,1 # 1 <_start-0x7fffffff>
80001208:	00200293          	li	t0,2
8000120c:	fe5212e3          	bne	tp,t0,800011f0 <test_512+0x8>

80001210 <test_513>:
80001210:	20100193          	li	gp,513
80001214:	00000213          	li	tp,0
80001218:	00000093          	li	ra,0
8000121c:	00000013          	nop
80001220:	fff00113          	li	sp,-1
80001224:	00000013          	nop
80001228:	00209463          	bne	ra,sp,80001230 <test_513+0x20>
8000122c:	68c0706f          	j	800088b8 <fail>
80001230:	00120213          	addi	tp,tp,1 # 1 <_start-0x7fffffff>
80001234:	00200293          	li	t0,2
80001238:	fe5210e3          	bne	tp,t0,80001218 <test_513+0x8>

8000123c <test_514>:
8000123c:	20200193          	li	gp,514
80001240:	00000213          	li	tp,0
80001244:	00000093          	li	ra,0
80001248:	00000013          	nop
8000124c:	00000013          	nop
80001250:	fff00113          	li	sp,-1
80001254:	00209463          	bne	ra,sp,8000125c <test_514+0x20>
80001258:	6600706f          	j	800088b8 <fail>
8000125c:	00120213          	addi	tp,tp,1 # 1 <_start-0x7fffffff>
80001260:	00200293          	li	t0,2
80001264:	fe5210e3          	bne	tp,t0,80001244 <test_514+0x8>

80001268 <test_515>:
80001268:	20300193          	li	gp,515
8000126c:	00000213          	li	tp,0
80001270:	00000093          	li	ra,0
80001274:	fff00113          	li	sp,-1
80001278:	00209463          	bne	ra,sp,80001280 <test_515+0x18>
8000127c:	63c0706f          	j	800088b8 <fail>
80001280:	00120213          	addi	tp,tp,1 # 1 <_start-0x7fffffff>
80001284:	00200293          	li	t0,2
80001288:	fe5214e3          	bne	tp,t0,80001270 <test_515+0x8>

8000128c <test_516>:
8000128c:	20400193          	li	gp,516
80001290:	00000213          	li	tp,0
80001294:	00000093          	li	ra,0
80001298:	fff00113          	li	sp,-1
8000129c:	00000013          	nop
800012a0:	00209463          	bne	ra,sp,800012a8 <test_516+0x1c>
800012a4:	6140706f          	j	800088b8 <fail>
800012a8:	00120213          	addi	tp,tp,1 # 1 <_start-0x7fffffff>
800012ac:	00200293          	li	t0,2
800012b0:	fe5212e3          	bne	tp,t0,80001294 <test_516+0x8>

800012b4 <test_517>:
800012b4:	20500193          	li	gp,517
800012b8:	00000213          	li	tp,0
800012bc:	00000093          	li	ra,0
800012c0:	fff00113          	li	sp,-1
800012c4:	00000013          	nop
800012c8:	00000013          	nop
800012cc:	00209463          	bne	ra,sp,800012d4 <test_517+0x20>
800012d0:	5e80706f          	j	800088b8 <fail>
800012d4:	00120213          	addi	tp,tp,1 # 1 <_start-0x7fffffff>
800012d8:	00200293          	li	t0,2
800012dc:	fe5210e3          	bne	tp,t0,800012bc <test_517+0x8>

800012e0 <test_518>:
800012e0:	20600193          	li	gp,518
800012e4:	00000213          	li	tp,0
800012e8:	00000093          	li	ra,0
800012ec:	00000013          	nop
800012f0:	fff00113          	li	sp,-1
800012f4:	00209463          	bne	ra,sp,800012fc <test_518+0x1c>
800012f8:	5c00706f          	j	800088b8 <fail>
800012fc:	00120213          	addi	tp,tp,1 # 1 <_start-0x7fffffff>
80001300:	00200293          	li	t0,2
80001304:	fe5212e3          	bne	tp,t0,800012e8 <test_518+0x8>

80001308 <test_519>:
80001308:	20700193          	li	gp,519
8000130c:	00000213          	li	tp,0
80001310:	00000093          	li	ra,0
80001314:	00000013          	nop
80001318:	fff00113          	li	sp,-1
8000131c:	00000013          	nop
80001320:	00209463          	bne	ra,sp,80001328 <test_519+0x20>
80001324:	5940706f          	j	800088b8 <fail>
80001328:	00120213          	addi	tp,tp,1 # 1 <_start-0x7fffffff>
8000132c:	00200293          	li	t0,2
80001330:	fe5210e3          	bne	tp,t0,80001310 <test_519+0x8>

80001334 <test_520>:
80001334:	20800193          	li	gp,520
80001338:	00000213          	li	tp,0
8000133c:	00000093          	li	ra,0
80001340:	00000013          	nop
80001344:	00000013          	nop
80001348:	fff00113          	li	sp,-1
8000134c:	00209463          	bne	ra,sp,80001354 <test_520+0x20>
80001350:	5680706f          	j	800088b8 <fail>
80001354:	00120213          	addi	tp,tp,1 # 1 <_start-0x7fffffff>
80001358:	00200293          	li	t0,2
8000135c:	fe5210e3          	bne	tp,t0,8000133c <test_520+0x8>

80001360 <test_602>:
80001360:	25a00193          	li	gp,602
80001364:	00000093          	li	ra,0
80001368:	00000113          	li	sp,0
8000136c:	0020d863          	bge	ra,sp,8000137c <test_602+0x1c>
80001370:	00300463          	beq	zero,gp,80001378 <test_602+0x18>
80001374:	5440706f          	j	800088b8 <fail>
80001378:	00301863          	bne	zero,gp,80001388 <test_603>
8000137c:	fe20dee3          	bge	ra,sp,80001378 <test_602+0x18>
80001380:	00300463          	beq	zero,gp,80001388 <test_603>
80001384:	5340706f          	j	800088b8 <fail>

80001388 <test_603>:
80001388:	25b00193          	li	gp,603
8000138c:	00100093          	li	ra,1
80001390:	00100113          	li	sp,1
80001394:	0020d863          	bge	ra,sp,800013a4 <test_603+0x1c>
80001398:	00300463          	beq	zero,gp,800013a0 <test_603+0x18>
8000139c:	51c0706f          	j	800088b8 <fail>
800013a0:	00301863          	bne	zero,gp,800013b0 <test_604>
800013a4:	fe20dee3          	bge	ra,sp,800013a0 <test_603+0x18>
800013a8:	00300463          	beq	zero,gp,800013b0 <test_604>
800013ac:	50c0706f          	j	800088b8 <fail>

800013b0 <test_604>:
800013b0:	25c00193          	li	gp,604
800013b4:	fff00093          	li	ra,-1
800013b8:	fff00113          	li	sp,-1
800013bc:	0020d863          	bge	ra,sp,800013cc <test_604+0x1c>
800013c0:	00300463          	beq	zero,gp,800013c8 <test_604+0x18>
800013c4:	4f40706f          	j	800088b8 <fail>
800013c8:	00301863          	bne	zero,gp,800013d8 <test_605>
800013cc:	fe20dee3          	bge	ra,sp,800013c8 <test_604+0x18>
800013d0:	00300463          	beq	zero,gp,800013d8 <test_605>
800013d4:	4e40706f          	j	800088b8 <fail>

800013d8 <test_605>:
800013d8:	25d00193          	li	gp,605
800013dc:	00100093          	li	ra,1
800013e0:	00000113          	li	sp,0
800013e4:	0020d863          	bge	ra,sp,800013f4 <test_605+0x1c>
800013e8:	00300463          	beq	zero,gp,800013f0 <test_605+0x18>
800013ec:	4cc0706f          	j	800088b8 <fail>
800013f0:	00301863          	bne	zero,gp,80001400 <test_606>
800013f4:	fe20dee3          	bge	ra,sp,800013f0 <test_605+0x18>
800013f8:	00300463          	beq	zero,gp,80001400 <test_606>
800013fc:	4bc0706f          	j	800088b8 <fail>

80001400 <test_606>:
80001400:	25e00193          	li	gp,606
80001404:	00100093          	li	ra,1
80001408:	fff00113          	li	sp,-1
8000140c:	0020d863          	bge	ra,sp,8000141c <test_606+0x1c>
80001410:	00300463          	beq	zero,gp,80001418 <test_606+0x18>
80001414:	4a40706f          	j	800088b8 <fail>
80001418:	00301863          	bne	zero,gp,80001428 <test_607>
8000141c:	fe20dee3          	bge	ra,sp,80001418 <test_606+0x18>
80001420:	00300463          	beq	zero,gp,80001428 <test_607>
80001424:	4940706f          	j	800088b8 <fail>

80001428 <test_607>:
80001428:	25f00193          	li	gp,607
8000142c:	fff00093          	li	ra,-1
80001430:	ffe00113          	li	sp,-2
80001434:	0020d863          	bge	ra,sp,80001444 <test_607+0x1c>
80001438:	00300463          	beq	zero,gp,80001440 <test_607+0x18>
8000143c:	47c0706f          	j	800088b8 <fail>
80001440:	00301863          	bne	zero,gp,80001450 <test_608>
80001444:	fe20dee3          	bge	ra,sp,80001440 <test_607+0x18>
80001448:	00300463          	beq	zero,gp,80001450 <test_608>
8000144c:	46c0706f          	j	800088b8 <fail>

80001450 <test_608>:
80001450:	26000193          	li	gp,608
80001454:	00000093          	li	ra,0
80001458:	00100113          	li	sp,1
8000145c:	0020d463          	bge	ra,sp,80001464 <test_608+0x14>
80001460:	00301663          	bne	zero,gp,8000146c <test_608+0x1c>
80001464:	00300463          	beq	zero,gp,8000146c <test_608+0x1c>
80001468:	4500706f          	j	800088b8 <fail>
8000146c:	fe20dce3          	bge	ra,sp,80001464 <test_608+0x14>

80001470 <test_609>:
80001470:	26100193          	li	gp,609
80001474:	fff00093          	li	ra,-1
80001478:	00100113          	li	sp,1
8000147c:	0020d463          	bge	ra,sp,80001484 <test_609+0x14>
80001480:	00301663          	bne	zero,gp,8000148c <test_609+0x1c>
80001484:	00300463          	beq	zero,gp,8000148c <test_609+0x1c>
80001488:	4300706f          	j	800088b8 <fail>
8000148c:	fe20dce3          	bge	ra,sp,80001484 <test_609+0x14>

80001490 <test_610>:
80001490:	26200193          	li	gp,610
80001494:	ffe00093          	li	ra,-2
80001498:	fff00113          	li	sp,-1
8000149c:	0020d463          	bge	ra,sp,800014a4 <test_610+0x14>
800014a0:	00301663          	bne	zero,gp,800014ac <test_610+0x1c>
800014a4:	00300463          	beq	zero,gp,800014ac <test_610+0x1c>
800014a8:	4100706f          	j	800088b8 <fail>
800014ac:	fe20dce3          	bge	ra,sp,800014a4 <test_610+0x14>

800014b0 <test_611>:
800014b0:	26300193          	li	gp,611
800014b4:	ffe00093          	li	ra,-2
800014b8:	00100113          	li	sp,1
800014bc:	0020d463          	bge	ra,sp,800014c4 <test_611+0x14>
800014c0:	00301663          	bne	zero,gp,800014cc <test_611+0x1c>
800014c4:	00300463          	beq	zero,gp,800014cc <test_611+0x1c>
800014c8:	3f00706f          	j	800088b8 <fail>
800014cc:	fe20dce3          	bge	ra,sp,800014c4 <test_611+0x14>

800014d0 <test_612>:
800014d0:	26400193          	li	gp,612
800014d4:	00000213          	li	tp,0
800014d8:	fff00093          	li	ra,-1
800014dc:	00000113          	li	sp,0
800014e0:	0020c463          	blt	ra,sp,800014e8 <test_612+0x18>
800014e4:	3d40706f          	j	800088b8 <fail>
800014e8:	00120213          	addi	tp,tp,1 # 1 <_start-0x7fffffff>
800014ec:	00200293          	li	t0,2
800014f0:	fe5214e3          	bne	tp,t0,800014d8 <test_612+0x8>

800014f4 <test_613>:
800014f4:	26500193          	li	gp,613
800014f8:	00000213          	li	tp,0
800014fc:	fff00093          	li	ra,-1
80001500:	00000113          	li	sp,0
80001504:	00000013          	nop
80001508:	0020c463          	blt	ra,sp,80001510 <test_613+0x1c>
8000150c:	3ac0706f          	j	800088b8 <fail>
80001510:	00120213          	addi	tp,tp,1 # 1 <_start-0x7fffffff>
80001514:	00200293          	li	t0,2
80001518:	fe5212e3          	bne	tp,t0,800014fc <test_613+0x8>

8000151c <test_614>:
8000151c:	26600193          	li	gp,614
80001520:	00000213          	li	tp,0
80001524:	fff00093          	li	ra,-1
80001528:	00000113          	li	sp,0
8000152c:	00000013          	nop
80001530:	00000013          	nop
80001534:	0020c463          	blt	ra,sp,8000153c <test_614+0x20>
80001538:	3800706f          	j	800088b8 <fail>
8000153c:	00120213          	addi	tp,tp,1 # 1 <_start-0x7fffffff>
80001540:	00200293          	li	t0,2
80001544:	fe5210e3          	bne	tp,t0,80001524 <test_614+0x8>

80001548 <test_615>:
80001548:	26700193          	li	gp,615
8000154c:	00000213          	li	tp,0
80001550:	fff00093          	li	ra,-1
80001554:	00000013          	nop
80001558:	00000113          	li	sp,0
8000155c:	0020c463          	blt	ra,sp,80001564 <test_615+0x1c>
80001560:	3580706f          	j	800088b8 <fail>
80001564:	00120213          	addi	tp,tp,1 # 1 <_start-0x7fffffff>
80001568:	00200293          	li	t0,2
8000156c:	fe5212e3          	bne	tp,t0,80001550 <test_615+0x8>

80001570 <test_616>:
80001570:	26800193          	li	gp,616
80001574:	00000213          	li	tp,0
80001578:	fff00093          	li	ra,-1
8000157c:	00000013          	nop
80001580:	00000113          	li	sp,0
80001584:	00000013          	nop
80001588:	0020c463          	blt	ra,sp,80001590 <test_616+0x20>
8000158c:	32c0706f          	j	800088b8 <fail>
80001590:	00120213          	addi	tp,tp,1 # 1 <_start-0x7fffffff>
80001594:	00200293          	li	t0,2
80001598:	fe5210e3          	bne	tp,t0,80001578 <test_616+0x8>

8000159c <test_617>:
8000159c:	26900193          	li	gp,617
800015a0:	00000213          	li	tp,0
800015a4:	fff00093          	li	ra,-1
800015a8:	00000013          	nop
800015ac:	00000013          	nop
800015b0:	00000113          	li	sp,0
800015b4:	0020c463          	blt	ra,sp,800015bc <test_617+0x20>
800015b8:	3000706f          	j	800088b8 <fail>
800015bc:	00120213          	addi	tp,tp,1 # 1 <_start-0x7fffffff>
800015c0:	00200293          	li	t0,2
800015c4:	fe5210e3          	bne	tp,t0,800015a4 <test_617+0x8>

800015c8 <test_618>:
800015c8:	26a00193          	li	gp,618
800015cc:	00000213          	li	tp,0
800015d0:	fff00093          	li	ra,-1
800015d4:	00000113          	li	sp,0
800015d8:	0020c463          	blt	ra,sp,800015e0 <test_618+0x18>
800015dc:	2dc0706f          	j	800088b8 <fail>
800015e0:	00120213          	addi	tp,tp,1 # 1 <_start-0x7fffffff>
800015e4:	00200293          	li	t0,2
800015e8:	fe5214e3          	bne	tp,t0,800015d0 <test_618+0x8>

800015ec <test_619>:
800015ec:	26b00193          	li	gp,619
800015f0:	00000213          	li	tp,0
800015f4:	fff00093          	li	ra,-1
800015f8:	00000113          	li	sp,0
800015fc:	00000013          	nop
80001600:	0020c463          	blt	ra,sp,80001608 <test_619+0x1c>
80001604:	2b40706f          	j	800088b8 <fail>
80001608:	00120213          	addi	tp,tp,1 # 1 <_start-0x7fffffff>
8000160c:	00200293          	li	t0,2
80001610:	fe5212e3          	bne	tp,t0,800015f4 <test_619+0x8>

80001614 <test_620>:
80001614:	26c00193          	li	gp,620
80001618:	00000213          	li	tp,0
8000161c:	fff00093          	li	ra,-1
80001620:	00000113          	li	sp,0
80001624:	00000013          	nop
80001628:	00000013          	nop
8000162c:	0020c463          	blt	ra,sp,80001634 <test_620+0x20>
80001630:	2880706f          	j	800088b8 <fail>
80001634:	00120213          	addi	tp,tp,1 # 1 <_start-0x7fffffff>
80001638:	00200293          	li	t0,2
8000163c:	fe5210e3          	bne	tp,t0,8000161c <test_620+0x8>

80001640 <test_621>:
80001640:	26d00193          	li	gp,621
80001644:	00000213          	li	tp,0
80001648:	fff00093          	li	ra,-1
8000164c:	00000013          	nop
80001650:	00000113          	li	sp,0
80001654:	0020c463          	blt	ra,sp,8000165c <test_621+0x1c>
80001658:	2600706f          	j	800088b8 <fail>
8000165c:	00120213          	addi	tp,tp,1 # 1 <_start-0x7fffffff>
80001660:	00200293          	li	t0,2
80001664:	fe5212e3          	bne	tp,t0,80001648 <test_621+0x8>

80001668 <test_622>:
80001668:	26e00193          	li	gp,622
8000166c:	00000213          	li	tp,0
80001670:	fff00093          	li	ra,-1
80001674:	00000013          	nop
80001678:	00000113          	li	sp,0
8000167c:	00000013          	nop
80001680:	0020c463          	blt	ra,sp,80001688 <test_622+0x20>
80001684:	2340706f          	j	800088b8 <fail>
80001688:	00120213          	addi	tp,tp,1 # 1 <_start-0x7fffffff>
8000168c:	00200293          	li	t0,2
80001690:	fe5210e3          	bne	tp,t0,80001670 <test_622+0x8>

80001694 <test_623>:
80001694:	26f00193          	li	gp,623
80001698:	00000213          	li	tp,0
8000169c:	fff00093          	li	ra,-1
800016a0:	00000013          	nop
800016a4:	00000013          	nop
800016a8:	00000113          	li	sp,0
800016ac:	0020c463          	blt	ra,sp,800016b4 <test_623+0x20>
800016b0:	2080706f          	j	800088b8 <fail>
800016b4:	00120213          	addi	tp,tp,1 # 1 <_start-0x7fffffff>
800016b8:	00200293          	li	t0,2
800016bc:	fe5210e3          	bne	tp,t0,8000169c <test_623+0x8>

800016c0 <jalr_test_2>:
800016c0:	2be00193          	li	gp,702
800016c4:	00000293          	li	t0,0
800016c8:	00000317          	auipc	t1,0x0
800016cc:	01030313          	addi	t1,t1,16 # 800016d8 <jalr_target_2>
800016d0:	000302e7          	jalr	t0,t1

800016d4 <jalr_linkaddr_2>:
800016d4:	1e40706f          	j	800088b8 <fail>

800016d8 <jalr_target_2>:
800016d8:	00000317          	auipc	t1,0x0
800016dc:	ffc30313          	addi	t1,t1,-4 # 800016d4 <jalr_linkaddr_2>
800016e0:	00628463          	beq	t0,t1,800016e8 <jalr_test_3>
800016e4:	1d40706f          	j	800088b8 <fail>

800016e8 <jalr_test_3>:
800016e8:	2bf00193          	li	gp,703
800016ec:	00000297          	auipc	t0,0x0
800016f0:	01028293          	addi	t0,t0,16 # 800016fc <jalr_target_3>
800016f4:	000282e7          	jalr	t0,t0

800016f8 <jalr_linkaddr_3>:
800016f8:	1c00706f          	j	800088b8 <fail>

800016fc <jalr_target_3>:
800016fc:	00000317          	auipc	t1,0x0
80001700:	ffc30313          	addi	t1,t1,-4 # 800016f8 <jalr_linkaddr_3>
80001704:	00628463          	beq	t0,t1,8000170c <test_704>
80001708:	1b00706f          	j	800088b8 <fail>

8000170c <test_704>:
8000170c:	2c000193          	li	gp,704
80001710:	00000213          	li	tp,0
80001714:	00000317          	auipc	t1,0x0
80001718:	01430313          	addi	t1,t1,20 # 80001728 <test_704+0x1c>
8000171c:	000306e7          	jalr	a3,t1
80001720:	00300463          	beq	zero,gp,80001728 <test_704+0x1c>
80001724:	1940706f          	j	800088b8 <fail>
80001728:	00120213          	addi	tp,tp,1 # 1 <_start-0x7fffffff>
8000172c:	00200293          	li	t0,2
80001730:	fe5212e3          	bne	tp,t0,80001714 <test_704+0x8>

80001734 <test_705>:
80001734:	2c100193          	li	gp,705
80001738:	00000213          	li	tp,0
8000173c:	00000317          	auipc	t1,0x0
80001740:	01830313          	addi	t1,t1,24 # 80001754 <test_705+0x20>
80001744:	00000013          	nop
80001748:	000306e7          	jalr	a3,t1
8000174c:	00300463          	beq	zero,gp,80001754 <test_705+0x20>
80001750:	1680706f          	j	800088b8 <fail>
80001754:	00120213          	addi	tp,tp,1 # 1 <_start-0x7fffffff>
80001758:	00200293          	li	t0,2
8000175c:	fe5210e3          	bne	tp,t0,8000173c <test_705+0x8>

80001760 <test_706>:
80001760:	2c200193          	li	gp,706
80001764:	00000213          	li	tp,0
80001768:	00000317          	auipc	t1,0x0
8000176c:	01c30313          	addi	t1,t1,28 # 80001784 <test_706+0x24>
80001770:	00000013          	nop
80001774:	00000013          	nop
80001778:	000306e7          	jalr	a3,t1
8000177c:	00300463          	beq	zero,gp,80001784 <test_706+0x24>
80001780:	1380706f          	j	800088b8 <fail>
80001784:	00120213          	addi	tp,tp,1 # 1 <_start-0x7fffffff>
80001788:	00200293          	li	t0,2
8000178c:	fc521ee3          	bne	tp,t0,80001768 <test_706+0x8>

80001790 <test_802>:
80001790:	32200193          	li	gp,802
80001794:	fff00793          	li	a5,-1
80001798:	00009097          	auipc	ra,0x9
8000179c:	86808093          	addi	ra,ra,-1944 # 8000a000 <begin_signature>
800017a0:	00008703          	lb	a4,0(ra)
800017a4:	fff00393          	li	t2,-1
800017a8:	00770463          	beq	a4,t2,800017b0 <test_803>
800017ac:	10c0706f          	j	800088b8 <fail>

800017b0 <test_803>:
800017b0:	32300193          	li	gp,803
800017b4:	00000793          	li	a5,0
800017b8:	00009097          	auipc	ra,0x9
800017bc:	84808093          	addi	ra,ra,-1976 # 8000a000 <begin_signature>
800017c0:	00108703          	lb	a4,1(ra)
800017c4:	00000393          	li	t2,0
800017c8:	00770463          	beq	a4,t2,800017d0 <test_804>
800017cc:	0ec0706f          	j	800088b8 <fail>

800017d0 <test_804>:
800017d0:	32400193          	li	gp,804
800017d4:	ff000793          	li	a5,-16
800017d8:	00009097          	auipc	ra,0x9
800017dc:	82808093          	addi	ra,ra,-2008 # 8000a000 <begin_signature>
800017e0:	00208703          	lb	a4,2(ra)
800017e4:	ff000393          	li	t2,-16
800017e8:	00770463          	beq	a4,t2,800017f0 <test_805>
800017ec:	0cc0706f          	j	800088b8 <fail>

800017f0 <test_805>:
800017f0:	32500193          	li	gp,805
800017f4:	00f00793          	li	a5,15
800017f8:	00009097          	auipc	ra,0x9
800017fc:	80808093          	addi	ra,ra,-2040 # 8000a000 <begin_signature>
80001800:	00308703          	lb	a4,3(ra)
80001804:	00f00393          	li	t2,15
80001808:	00770463          	beq	a4,t2,80001810 <test_806>
8000180c:	0ac0706f          	j	800088b8 <fail>

80001810 <test_806>:
80001810:	32600193          	li	gp,806
80001814:	fff00793          	li	a5,-1
80001818:	00008097          	auipc	ra,0x8
8000181c:	7eb08093          	addi	ra,ra,2027 # 8000a003 <lb_tdat4>
80001820:	ffd08703          	lb	a4,-3(ra)
80001824:	fff00393          	li	t2,-1
80001828:	00770463          	beq	a4,t2,80001830 <test_807>
8000182c:	08c0706f          	j	800088b8 <fail>

80001830 <test_807>:
80001830:	32700193          	li	gp,807
80001834:	00000793          	li	a5,0
80001838:	00008097          	auipc	ra,0x8
8000183c:	7cb08093          	addi	ra,ra,1995 # 8000a003 <lb_tdat4>
80001840:	ffe08703          	lb	a4,-2(ra)
80001844:	00000393          	li	t2,0
80001848:	00770463          	beq	a4,t2,80001850 <test_808>
8000184c:	06c0706f          	j	800088b8 <fail>

80001850 <test_808>:
80001850:	32800193          	li	gp,808
80001854:	ff000793          	li	a5,-16
80001858:	00008097          	auipc	ra,0x8
8000185c:	7ab08093          	addi	ra,ra,1963 # 8000a003 <lb_tdat4>
80001860:	fff08703          	lb	a4,-1(ra)
80001864:	ff000393          	li	t2,-16
80001868:	00770463          	beq	a4,t2,80001870 <test_809>
8000186c:	04c0706f          	j	800088b8 <fail>

80001870 <test_809>:
80001870:	32900193          	li	gp,809
80001874:	00f00793          	li	a5,15
80001878:	00008097          	auipc	ra,0x8
8000187c:	78b08093          	addi	ra,ra,1931 # 8000a003 <lb_tdat4>
80001880:	00008703          	lb	a4,0(ra)
80001884:	00f00393          	li	t2,15
80001888:	00770463          	beq	a4,t2,80001890 <test_810>
8000188c:	02c0706f          	j	800088b8 <fail>

80001890 <test_810>:
80001890:	32a00193          	li	gp,810
80001894:	00008097          	auipc	ra,0x8
80001898:	76c08093          	addi	ra,ra,1900 # 8000a000 <begin_signature>
8000189c:	fe008093          	addi	ra,ra,-32
800018a0:	02008283          	lb	t0,32(ra)
800018a4:	fff00393          	li	t2,-1
800018a8:	00728463          	beq	t0,t2,800018b0 <test_811>
800018ac:	00c0706f          	j	800088b8 <fail>

800018b0 <test_811>:
800018b0:	32b00193          	li	gp,811
800018b4:	00008097          	auipc	ra,0x8
800018b8:	74c08093          	addi	ra,ra,1868 # 8000a000 <begin_signature>
800018bc:	ffa08093          	addi	ra,ra,-6
800018c0:	00708283          	lb	t0,7(ra)
800018c4:	00000393          	li	t2,0
800018c8:	00728463          	beq	t0,t2,800018d0 <test_812>
800018cc:	7ed0606f          	j	800088b8 <fail>

800018d0 <test_812>:
800018d0:	32c00193          	li	gp,812
800018d4:	00000213          	li	tp,0
800018d8:	00008097          	auipc	ra,0x8
800018dc:	72908093          	addi	ra,ra,1833 # 8000a001 <lb_tdat2>
800018e0:	00108703          	lb	a4,1(ra)
800018e4:	00070313          	mv	t1,a4
800018e8:	ff000393          	li	t2,-16
800018ec:	00730463          	beq	t1,t2,800018f4 <test_812+0x24>
800018f0:	7c90606f          	j	800088b8 <fail>
800018f4:	00120213          	addi	tp,tp,1 # 1 <_start-0x7fffffff>
800018f8:	00200293          	li	t0,2
800018fc:	fc521ee3          	bne	tp,t0,800018d8 <test_812+0x8>

80001900 <test_813>:
80001900:	32d00193          	li	gp,813
80001904:	00000213          	li	tp,0
80001908:	00008097          	auipc	ra,0x8
8000190c:	6fa08093          	addi	ra,ra,1786 # 8000a002 <lb_tdat3>
80001910:	00108703          	lb	a4,1(ra)
80001914:	00000013          	nop
80001918:	00070313          	mv	t1,a4
8000191c:	00f00393          	li	t2,15
80001920:	00730463          	beq	t1,t2,80001928 <test_813+0x28>
80001924:	7950606f          	j	800088b8 <fail>
80001928:	00120213          	addi	tp,tp,1 # 1 <_start-0x7fffffff>
8000192c:	00200293          	li	t0,2
80001930:	fc521ce3          	bne	tp,t0,80001908 <test_813+0x8>

80001934 <test_814>:
80001934:	32e00193          	li	gp,814
80001938:	00000213          	li	tp,0
8000193c:	00008097          	auipc	ra,0x8
80001940:	6c408093          	addi	ra,ra,1732 # 8000a000 <begin_signature>
80001944:	00108703          	lb	a4,1(ra)
80001948:	00000013          	nop
8000194c:	00000013          	nop
80001950:	00070313          	mv	t1,a4
80001954:	00000393          	li	t2,0
80001958:	00730463          	beq	t1,t2,80001960 <test_814+0x2c>
8000195c:	75d0606f          	j	800088b8 <fail>
80001960:	00120213          	addi	tp,tp,1 # 1 <_start-0x7fffffff>
80001964:	00200293          	li	t0,2
80001968:	fc521ae3          	bne	tp,t0,8000193c <test_814+0x8>

8000196c <test_815>:
8000196c:	32f00193          	li	gp,815
80001970:	00000213          	li	tp,0
80001974:	00008097          	auipc	ra,0x8
80001978:	68d08093          	addi	ra,ra,1677 # 8000a001 <lb_tdat2>
8000197c:	00108703          	lb	a4,1(ra)
80001980:	ff000393          	li	t2,-16
80001984:	00770463          	beq	a4,t2,8000198c <test_815+0x20>
80001988:	7310606f          	j	800088b8 <fail>
8000198c:	00120213          	addi	tp,tp,1 # 1 <_start-0x7fffffff>
80001990:	00200293          	li	t0,2
80001994:	fe5210e3          	bne	tp,t0,80001974 <test_815+0x8>

80001998 <test_816>:
80001998:	33000193          	li	gp,816
8000199c:	00000213          	li	tp,0
800019a0:	00008097          	auipc	ra,0x8
800019a4:	66208093          	addi	ra,ra,1634 # 8000a002 <lb_tdat3>
800019a8:	00000013          	nop
800019ac:	00108703          	lb	a4,1(ra)
800019b0:	00f00393          	li	t2,15
800019b4:	00770463          	beq	a4,t2,800019bc <test_816+0x24>
800019b8:	7010606f          	j	800088b8 <fail>
800019bc:	00120213          	addi	tp,tp,1 # 1 <_start-0x7fffffff>
800019c0:	00200293          	li	t0,2
800019c4:	fc521ee3          	bne	tp,t0,800019a0 <test_816+0x8>

800019c8 <test_817>:
800019c8:	33100193          	li	gp,817
800019cc:	00000213          	li	tp,0
800019d0:	00008097          	auipc	ra,0x8
800019d4:	63008093          	addi	ra,ra,1584 # 8000a000 <begin_signature>
800019d8:	00000013          	nop
800019dc:	00000013          	nop
800019e0:	00108703          	lb	a4,1(ra)
800019e4:	00000393          	li	t2,0
800019e8:	00770463          	beq	a4,t2,800019f0 <test_817+0x28>
800019ec:	6cd0606f          	j	800088b8 <fail>
800019f0:	00120213          	addi	tp,tp,1 # 1 <_start-0x7fffffff>
800019f4:	00200293          	li	t0,2
800019f8:	fc521ce3          	bne	tp,t0,800019d0 <test_817+0x8>

800019fc <test_818>:
800019fc:	33200193          	li	gp,818
80001a00:	00008297          	auipc	t0,0x8
80001a04:	60028293          	addi	t0,t0,1536 # 8000a000 <begin_signature>
80001a08:	00028103          	lb	sp,0(t0)
80001a0c:	00200113          	li	sp,2
80001a10:	00200393          	li	t2,2
80001a14:	00710463          	beq	sp,t2,80001a1c <test_819>
80001a18:	6a10606f          	j	800088b8 <fail>

80001a1c <test_819>:
80001a1c:	33300193          	li	gp,819
80001a20:	00008297          	auipc	t0,0x8
80001a24:	5e028293          	addi	t0,t0,1504 # 8000a000 <begin_signature>
80001a28:	00028103          	lb	sp,0(t0)
80001a2c:	00000013          	nop
80001a30:	00200113          	li	sp,2
80001a34:	00200393          	li	t2,2
80001a38:	00710463          	beq	sp,t2,80001a40 <test_902>
80001a3c:	67d0606f          	j	800088b8 <fail>

80001a40 <test_902>:
80001a40:	38600193          	li	gp,902
80001a44:	00008097          	auipc	ra,0x8
80001a48:	5cc08093          	addi	ra,ra,1484 # 8000a010 <sb_tdat>
80001a4c:	faa00113          	li	sp,-86
80001a50:	00000797          	auipc	a5,0x0
80001a54:	01478793          	addi	a5,a5,20 # 80001a64 <test_902+0x24>
80001a58:	00208023          	sb	sp,0(ra)
80001a5c:	00008703          	lb	a4,0(ra)
80001a60:	0080006f          	j	80001a68 <test_902+0x28>
80001a64:	00010713          	mv	a4,sp
80001a68:	faa00393          	li	t2,-86
80001a6c:	00770463          	beq	a4,t2,80001a74 <test_903>
80001a70:	6490606f          	j	800088b8 <fail>

80001a74 <test_903>:
80001a74:	38700193          	li	gp,903
80001a78:	00008097          	auipc	ra,0x8
80001a7c:	59808093          	addi	ra,ra,1432 # 8000a010 <sb_tdat>
80001a80:	00000113          	li	sp,0
80001a84:	00000797          	auipc	a5,0x0
80001a88:	01478793          	addi	a5,a5,20 # 80001a98 <test_903+0x24>
80001a8c:	002080a3          	sb	sp,1(ra)
80001a90:	00108703          	lb	a4,1(ra)
80001a94:	0080006f          	j	80001a9c <test_903+0x28>
80001a98:	00010713          	mv	a4,sp
80001a9c:	00000393          	li	t2,0
80001aa0:	00770463          	beq	a4,t2,80001aa8 <test_904>
80001aa4:	6150606f          	j	800088b8 <fail>

80001aa8 <test_904>:
80001aa8:	38800193          	li	gp,904
80001aac:	00008097          	auipc	ra,0x8
80001ab0:	56408093          	addi	ra,ra,1380 # 8000a010 <sb_tdat>
80001ab4:	fffff137          	lui	sp,0xfffff
80001ab8:	fa010113          	addi	sp,sp,-96 # ffffefa0 <_end+0x7fff4ed0>
80001abc:	00000797          	auipc	a5,0x0
80001ac0:	01478793          	addi	a5,a5,20 # 80001ad0 <test_904+0x28>
80001ac4:	00208123          	sb	sp,2(ra)
80001ac8:	00209703          	lh	a4,2(ra)
80001acc:	0080006f          	j	80001ad4 <test_904+0x2c>
80001ad0:	00010713          	mv	a4,sp
80001ad4:	fffff3b7          	lui	t2,0xfffff
80001ad8:	fa038393          	addi	t2,t2,-96 # ffffefa0 <_end+0x7fff4ed0>
80001adc:	00770463          	beq	a4,t2,80001ae4 <test_905>
80001ae0:	5d90606f          	j	800088b8 <fail>

80001ae4 <test_905>:
80001ae4:	38900193          	li	gp,905
80001ae8:	00008097          	auipc	ra,0x8
80001aec:	52808093          	addi	ra,ra,1320 # 8000a010 <sb_tdat>
80001af0:	00a00113          	li	sp,10
80001af4:	00000797          	auipc	a5,0x0
80001af8:	01478793          	addi	a5,a5,20 # 80001b08 <test_905+0x24>
80001afc:	002081a3          	sb	sp,3(ra)
80001b00:	00308703          	lb	a4,3(ra)
80001b04:	0080006f          	j	80001b0c <test_905+0x28>
80001b08:	00010713          	mv	a4,sp
80001b0c:	00a00393          	li	t2,10
80001b10:	00770463          	beq	a4,t2,80001b18 <test_906>
80001b14:	5a50606f          	j	800088b8 <fail>

80001b18 <test_906>:
80001b18:	38a00193          	li	gp,906
80001b1c:	00008097          	auipc	ra,0x8
80001b20:	4fb08093          	addi	ra,ra,1275 # 8000a017 <sb_tdat8>
80001b24:	faa00113          	li	sp,-86
80001b28:	00000797          	auipc	a5,0x0
80001b2c:	01478793          	addi	a5,a5,20 # 80001b3c <test_906+0x24>
80001b30:	fe208ea3          	sb	sp,-3(ra)
80001b34:	ffd08703          	lb	a4,-3(ra)
80001b38:	0080006f          	j	80001b40 <test_906+0x28>
80001b3c:	00010713          	mv	a4,sp
80001b40:	faa00393          	li	t2,-86
80001b44:	00770463          	beq	a4,t2,80001b4c <test_907>
80001b48:	5710606f          	j	800088b8 <fail>

80001b4c <test_907>:
80001b4c:	38b00193          	li	gp,907
80001b50:	00008097          	auipc	ra,0x8
80001b54:	4c708093          	addi	ra,ra,1223 # 8000a017 <sb_tdat8>
80001b58:	00000113          	li	sp,0
80001b5c:	00000797          	auipc	a5,0x0
80001b60:	01478793          	addi	a5,a5,20 # 80001b70 <test_907+0x24>
80001b64:	fe208f23          	sb	sp,-2(ra)
80001b68:	ffe08703          	lb	a4,-2(ra)
80001b6c:	0080006f          	j	80001b74 <test_907+0x28>
80001b70:	00010713          	mv	a4,sp
80001b74:	00000393          	li	t2,0
80001b78:	00770463          	beq	a4,t2,80001b80 <test_908>
80001b7c:	53d0606f          	j	800088b8 <fail>

80001b80 <test_908>:
80001b80:	38c00193          	li	gp,908
80001b84:	00008097          	auipc	ra,0x8
80001b88:	49308093          	addi	ra,ra,1171 # 8000a017 <sb_tdat8>
80001b8c:	fa000113          	li	sp,-96
80001b90:	00000797          	auipc	a5,0x0
80001b94:	01478793          	addi	a5,a5,20 # 80001ba4 <test_908+0x24>
80001b98:	fe208fa3          	sb	sp,-1(ra)
80001b9c:	fff08703          	lb	a4,-1(ra)
80001ba0:	0080006f          	j	80001ba8 <test_908+0x28>
80001ba4:	00010713          	mv	a4,sp
80001ba8:	fa000393          	li	t2,-96
80001bac:	00770463          	beq	a4,t2,80001bb4 <test_909>
80001bb0:	5090606f          	j	800088b8 <fail>

80001bb4 <test_909>:
80001bb4:	38d00193          	li	gp,909
80001bb8:	00008097          	auipc	ra,0x8
80001bbc:	45f08093          	addi	ra,ra,1119 # 8000a017 <sb_tdat8>
80001bc0:	00a00113          	li	sp,10
80001bc4:	00000797          	auipc	a5,0x0
80001bc8:	01478793          	addi	a5,a5,20 # 80001bd8 <test_909+0x24>
80001bcc:	00208023          	sb	sp,0(ra)
80001bd0:	00008703          	lb	a4,0(ra)
80001bd4:	0080006f          	j	80001bdc <test_909+0x28>
80001bd8:	00010713          	mv	a4,sp
80001bdc:	00a00393          	li	t2,10
80001be0:	00770463          	beq	a4,t2,80001be8 <test_910>
80001be4:	4d50606f          	j	800088b8 <fail>

80001be8 <test_910>:
80001be8:	38e00193          	li	gp,910
80001bec:	00008097          	auipc	ra,0x8
80001bf0:	42c08093          	addi	ra,ra,1068 # 8000a018 <sb_tdat9>
80001bf4:	12345137          	lui	sp,0x12345
80001bf8:	67810113          	addi	sp,sp,1656 # 12345678 <_start-0x6dcba988>
80001bfc:	fe008213          	addi	tp,ra,-32
80001c00:	02220023          	sb	sp,32(tp) # 20 <_start-0x7fffffe0>
80001c04:	00008283          	lb	t0,0(ra)
80001c08:	07800393          	li	t2,120
80001c0c:	00728463          	beq	t0,t2,80001c14 <test_911>
80001c10:	4a90606f          	j	800088b8 <fail>

80001c14 <test_911>:
80001c14:	38f00193          	li	gp,911
80001c18:	00008097          	auipc	ra,0x8
80001c1c:	40008093          	addi	ra,ra,1024 # 8000a018 <sb_tdat9>
80001c20:	00003137          	lui	sp,0x3
80001c24:	09810113          	addi	sp,sp,152 # 3098 <_start-0x7fffcf68>
80001c28:	ffa08093          	addi	ra,ra,-6
80001c2c:	002083a3          	sb	sp,7(ra)
80001c30:	00008217          	auipc	tp,0x8
80001c34:	3e920213          	addi	tp,tp,1001 # 8000a019 <sb_tdat10>
80001c38:	00020283          	lb	t0,0(tp) # 0 <_start-0x80000000>
80001c3c:	f9800393          	li	t2,-104
80001c40:	00728463          	beq	t0,t2,80001c48 <test_912>
80001c44:	4750606f          	j	800088b8 <fail>

80001c48 <test_912>:
80001c48:	39000193          	li	gp,912
80001c4c:	00000213          	li	tp,0
80001c50:	fdd00093          	li	ra,-35
80001c54:	00008117          	auipc	sp,0x8
80001c58:	3bc10113          	addi	sp,sp,956 # 8000a010 <sb_tdat>
80001c5c:	00110023          	sb	ra,0(sp)
80001c60:	00010703          	lb	a4,0(sp)
80001c64:	fdd00393          	li	t2,-35
80001c68:	00770463          	beq	a4,t2,80001c70 <test_912+0x28>
80001c6c:	44d0606f          	j	800088b8 <fail>
80001c70:	00120213          	addi	tp,tp,1 # 1 <_start-0x7fffffff>
80001c74:	00200293          	li	t0,2
80001c78:	fc521ce3          	bne	tp,t0,80001c50 <test_912+0x8>

80001c7c <test_913>:
80001c7c:	39100193          	li	gp,913
80001c80:	00000213          	li	tp,0
80001c84:	fcd00093          	li	ra,-51
80001c88:	00008117          	auipc	sp,0x8
80001c8c:	38810113          	addi	sp,sp,904 # 8000a010 <sb_tdat>
80001c90:	00000013          	nop
80001c94:	001100a3          	sb	ra,1(sp)
80001c98:	00110703          	lb	a4,1(sp)
80001c9c:	fcd00393          	li	t2,-51
80001ca0:	00770463          	beq	a4,t2,80001ca8 <test_913+0x2c>
80001ca4:	4150606f          	j	800088b8 <fail>
80001ca8:	00120213          	addi	tp,tp,1 # 1 <_start-0x7fffffff>
80001cac:	00200293          	li	t0,2
80001cb0:	fc521ae3          	bne	tp,t0,80001c84 <test_913+0x8>

80001cb4 <test_914>:
80001cb4:	39200193          	li	gp,914
80001cb8:	00000213          	li	tp,0
80001cbc:	fcc00093          	li	ra,-52
80001cc0:	00008117          	auipc	sp,0x8
80001cc4:	35010113          	addi	sp,sp,848 # 8000a010 <sb_tdat>
80001cc8:	00000013          	nop
80001ccc:	00000013          	nop
80001cd0:	00110123          	sb	ra,2(sp)
80001cd4:	00210703          	lb	a4,2(sp)
80001cd8:	fcc00393          	li	t2,-52
80001cdc:	00770463          	beq	a4,t2,80001ce4 <test_914+0x30>
80001ce0:	3d90606f          	j	800088b8 <fail>
80001ce4:	00120213          	addi	tp,tp,1 # 1 <_start-0x7fffffff>
80001ce8:	00200293          	li	t0,2
80001cec:	fc5218e3          	bne	tp,t0,80001cbc <test_914+0x8>

80001cf0 <test_915>:
80001cf0:	39300193          	li	gp,915
80001cf4:	00000213          	li	tp,0
80001cf8:	fbc00093          	li	ra,-68
80001cfc:	00000013          	nop
80001d00:	00008117          	auipc	sp,0x8
80001d04:	31010113          	addi	sp,sp,784 # 8000a010 <sb_tdat>
80001d08:	001101a3          	sb	ra,3(sp)
80001d0c:	00310703          	lb	a4,3(sp)
80001d10:	fbc00393          	li	t2,-68
80001d14:	00770463          	beq	a4,t2,80001d1c <test_915+0x2c>
80001d18:	3a10606f          	j	800088b8 <fail>
80001d1c:	00120213          	addi	tp,tp,1 # 1 <_start-0x7fffffff>
80001d20:	00200293          	li	t0,2
80001d24:	fc521ae3          	bne	tp,t0,80001cf8 <test_915+0x8>

80001d28 <test_916>:
80001d28:	39400193          	li	gp,916
80001d2c:	00000213          	li	tp,0
80001d30:	fbb00093          	li	ra,-69
80001d34:	00000013          	nop
80001d38:	00008117          	auipc	sp,0x8
80001d3c:	2d810113          	addi	sp,sp,728 # 8000a010 <sb_tdat>
80001d40:	00000013          	nop
80001d44:	00110223          	sb	ra,4(sp)
80001d48:	00410703          	lb	a4,4(sp)
80001d4c:	fbb00393          	li	t2,-69
80001d50:	00770463          	beq	a4,t2,80001d58 <test_916+0x30>
80001d54:	3650606f          	j	800088b8 <fail>
80001d58:	00120213          	addi	tp,tp,1 # 1 <_start-0x7fffffff>
80001d5c:	00200293          	li	t0,2
80001d60:	fc5218e3          	bne	tp,t0,80001d30 <test_916+0x8>

80001d64 <test_917>:
80001d64:	39500193          	li	gp,917
80001d68:	00000213          	li	tp,0
80001d6c:	fab00093          	li	ra,-85
80001d70:	00000013          	nop
80001d74:	00000013          	nop
80001d78:	00008117          	auipc	sp,0x8
80001d7c:	29810113          	addi	sp,sp,664 # 8000a010 <sb_tdat>
80001d80:	001102a3          	sb	ra,5(sp)
80001d84:	00510703          	lb	a4,5(sp)
80001d88:	fab00393          	li	t2,-85
80001d8c:	00770463          	beq	a4,t2,80001d94 <test_917+0x30>
80001d90:	3290606f          	j	800088b8 <fail>
80001d94:	00120213          	addi	tp,tp,1 # 1 <_start-0x7fffffff>
80001d98:	00200293          	li	t0,2
80001d9c:	fc5218e3          	bne	tp,t0,80001d6c <test_917+0x8>

80001da0 <test_918>:
80001da0:	39600193          	li	gp,918
80001da4:	00000213          	li	tp,0
80001da8:	00008117          	auipc	sp,0x8
80001dac:	26810113          	addi	sp,sp,616 # 8000a010 <sb_tdat>
80001db0:	03300093          	li	ra,51
80001db4:	00110023          	sb	ra,0(sp)
80001db8:	00010703          	lb	a4,0(sp)
80001dbc:	03300393          	li	t2,51
80001dc0:	00770463          	beq	a4,t2,80001dc8 <test_918+0x28>
80001dc4:	2f50606f          	j	800088b8 <fail>
80001dc8:	00120213          	addi	tp,tp,1 # 1 <_start-0x7fffffff>
80001dcc:	00200293          	li	t0,2
80001dd0:	fc521ce3          	bne	tp,t0,80001da8 <test_918+0x8>

80001dd4 <test_919>:
80001dd4:	39700193          	li	gp,919
80001dd8:	00000213          	li	tp,0
80001ddc:	00008117          	auipc	sp,0x8
80001de0:	23410113          	addi	sp,sp,564 # 8000a010 <sb_tdat>
80001de4:	02300093          	li	ra,35
80001de8:	00000013          	nop
80001dec:	001100a3          	sb	ra,1(sp)
80001df0:	00110703          	lb	a4,1(sp)
80001df4:	02300393          	li	t2,35
80001df8:	00770463          	beq	a4,t2,80001e00 <test_919+0x2c>
80001dfc:	2bd0606f          	j	800088b8 <fail>
80001e00:	00120213          	addi	tp,tp,1 # 1 <_start-0x7fffffff>
80001e04:	00200293          	li	t0,2
80001e08:	fc521ae3          	bne	tp,t0,80001ddc <test_919+0x8>

80001e0c <test_920>:
80001e0c:	39800193          	li	gp,920
80001e10:	00000213          	li	tp,0
80001e14:	00008117          	auipc	sp,0x8
80001e18:	1fc10113          	addi	sp,sp,508 # 8000a010 <sb_tdat>
80001e1c:	02200093          	li	ra,34
80001e20:	00000013          	nop
80001e24:	00000013          	nop
80001e28:	00110123          	sb	ra,2(sp)
80001e2c:	00210703          	lb	a4,2(sp)
80001e30:	02200393          	li	t2,34
80001e34:	00770463          	beq	a4,t2,80001e3c <test_920+0x30>
80001e38:	2810606f          	j	800088b8 <fail>
80001e3c:	00120213          	addi	tp,tp,1 # 1 <_start-0x7fffffff>
80001e40:	00200293          	li	t0,2
80001e44:	fc5218e3          	bne	tp,t0,80001e14 <test_920+0x8>

80001e48 <test_921>:
80001e48:	39900193          	li	gp,921
80001e4c:	00000213          	li	tp,0
80001e50:	00008117          	auipc	sp,0x8
80001e54:	1c010113          	addi	sp,sp,448 # 8000a010 <sb_tdat>
80001e58:	00000013          	nop
80001e5c:	01200093          	li	ra,18
80001e60:	001101a3          	sb	ra,3(sp)
80001e64:	00310703          	lb	a4,3(sp)
80001e68:	01200393          	li	t2,18
80001e6c:	00770463          	beq	a4,t2,80001e74 <test_921+0x2c>
80001e70:	2490606f          	j	800088b8 <fail>
80001e74:	00120213          	addi	tp,tp,1 # 1 <_start-0x7fffffff>
80001e78:	00200293          	li	t0,2
80001e7c:	fc521ae3          	bne	tp,t0,80001e50 <test_921+0x8>

80001e80 <test_922>:
80001e80:	39a00193          	li	gp,922
80001e84:	00000213          	li	tp,0
80001e88:	00008117          	auipc	sp,0x8
80001e8c:	18810113          	addi	sp,sp,392 # 8000a010 <sb_tdat>
80001e90:	00000013          	nop
80001e94:	01100093          	li	ra,17
80001e98:	00000013          	nop
80001e9c:	00110223          	sb	ra,4(sp)
80001ea0:	00410703          	lb	a4,4(sp)
80001ea4:	01100393          	li	t2,17
80001ea8:	00770463          	beq	a4,t2,80001eb0 <test_922+0x30>
80001eac:	20d0606f          	j	800088b8 <fail>
80001eb0:	00120213          	addi	tp,tp,1 # 1 <_start-0x7fffffff>
80001eb4:	00200293          	li	t0,2
80001eb8:	fc5218e3          	bne	tp,t0,80001e88 <test_922+0x8>

80001ebc <test_923>:
80001ebc:	39b00193          	li	gp,923
80001ec0:	00000213          	li	tp,0
80001ec4:	00008117          	auipc	sp,0x8
80001ec8:	14c10113          	addi	sp,sp,332 # 8000a010 <sb_tdat>
80001ecc:	00000013          	nop
80001ed0:	00000013          	nop
80001ed4:	00100093          	li	ra,1
80001ed8:	001102a3          	sb	ra,5(sp)
80001edc:	00510703          	lb	a4,5(sp)
80001ee0:	00100393          	li	t2,1
80001ee4:	00770463          	beq	a4,t2,80001eec <test_923+0x30>
80001ee8:	1d10606f          	j	800088b8 <fail>
80001eec:	00120213          	addi	tp,tp,1 # 1 <_start-0x7fffffff>
80001ef0:	00200293          	li	t0,2
80001ef4:	fc5218e3          	bne	tp,t0,80001ec4 <test_923+0x8>
80001ef8:	0ef00513          	li	a0,239
80001efc:	00008597          	auipc	a1,0x8
80001f00:	11458593          	addi	a1,a1,276 # 8000a010 <sb_tdat>
80001f04:	00a581a3          	sb	a0,3(a1)

80001f08 <test_1002>:
80001f08:	3ea00193          	li	gp,1002
80001f0c:	ff0100b7          	lui	ra,0xff010
80001f10:	f0008093          	addi	ra,ra,-256 # ff00ff00 <_end+0x7f005e30>
80001f14:	0f0f1137          	lui	sp,0xf0f1
80001f18:	f0f10113          	addi	sp,sp,-241 # f0f0f0f <_start-0x70f0f0f1>
80001f1c:	0020c733          	xor	a4,ra,sp
80001f20:	f00ff3b7          	lui	t2,0xf00ff
80001f24:	00f38393          	addi	t2,t2,15 # f00ff00f <_end+0x700f4f3f>
80001f28:	00770463          	beq	a4,t2,80001f30 <test_1003>
80001f2c:	18d0606f          	j	800088b8 <fail>

80001f30 <test_1003>:
80001f30:	3eb00193          	li	gp,1003
80001f34:	0ff010b7          	lui	ra,0xff01
80001f38:	ff008093          	addi	ra,ra,-16 # ff00ff0 <_start-0x700ff010>
80001f3c:	f0f0f137          	lui	sp,0xf0f0f
80001f40:	0f010113          	addi	sp,sp,240 # f0f0f0f0 <_end+0x70f05020>
80001f44:	0020c733          	xor	a4,ra,sp
80001f48:	ff0103b7          	lui	t2,0xff010
80001f4c:	f0038393          	addi	t2,t2,-256 # ff00ff00 <_end+0x7f005e30>
80001f50:	00770463          	beq	a4,t2,80001f58 <test_1004>
80001f54:	1650606f          	j	800088b8 <fail>

80001f58 <test_1004>:
80001f58:	3ec00193          	li	gp,1004
80001f5c:	00ff00b7          	lui	ra,0xff0
80001f60:	0ff08093          	addi	ra,ra,255 # ff00ff <_start-0x7f00ff01>
80001f64:	0f0f1137          	lui	sp,0xf0f1
80001f68:	f0f10113          	addi	sp,sp,-241 # f0f0f0f <_start-0x70f0f0f1>
80001f6c:	0020c733          	xor	a4,ra,sp
80001f70:	0ff013b7          	lui	t2,0xff01
80001f74:	ff038393          	addi	t2,t2,-16 # ff00ff0 <_start-0x700ff010>
80001f78:	00770463          	beq	a4,t2,80001f80 <test_1005>
80001f7c:	13d0606f          	j	800088b8 <fail>

80001f80 <test_1005>:
80001f80:	3ed00193          	li	gp,1005
80001f84:	f00ff0b7          	lui	ra,0xf00ff
80001f88:	00f08093          	addi	ra,ra,15 # f00ff00f <_end+0x700f4f3f>
80001f8c:	f0f0f137          	lui	sp,0xf0f0f
80001f90:	0f010113          	addi	sp,sp,240 # f0f0f0f0 <_end+0x70f05020>
80001f94:	0020c733          	xor	a4,ra,sp
80001f98:	00ff03b7          	lui	t2,0xff0
80001f9c:	0ff38393          	addi	t2,t2,255 # ff00ff <_start-0x7f00ff01>
80001fa0:	00770463          	beq	a4,t2,80001fa8 <test_1006>
80001fa4:	1150606f          	j	800088b8 <fail>

80001fa8 <test_1006>:
80001fa8:	3ee00193          	li	gp,1006
80001fac:	ff0100b7          	lui	ra,0xff010
80001fb0:	f0008093          	addi	ra,ra,-256 # ff00ff00 <_end+0x7f005e30>
80001fb4:	0f0f1137          	lui	sp,0xf0f1
80001fb8:	f0f10113          	addi	sp,sp,-241 # f0f0f0f <_start-0x70f0f0f1>
80001fbc:	0020c0b3          	xor	ra,ra,sp
80001fc0:	f00ff3b7          	lui	t2,0xf00ff
80001fc4:	00f38393          	addi	t2,t2,15 # f00ff00f <_end+0x700f4f3f>
80001fc8:	00708463          	beq	ra,t2,80001fd0 <test_1007>
80001fcc:	0ed0606f          	j	800088b8 <fail>

80001fd0 <test_1007>:
80001fd0:	3ef00193          	li	gp,1007
80001fd4:	ff0100b7          	lui	ra,0xff010
80001fd8:	f0008093          	addi	ra,ra,-256 # ff00ff00 <_end+0x7f005e30>
80001fdc:	0f0f1137          	lui	sp,0xf0f1
80001fe0:	f0f10113          	addi	sp,sp,-241 # f0f0f0f <_start-0x70f0f0f1>
80001fe4:	0020c133          	xor	sp,ra,sp
80001fe8:	f00ff3b7          	lui	t2,0xf00ff
80001fec:	00f38393          	addi	t2,t2,15 # f00ff00f <_end+0x700f4f3f>
80001ff0:	00710463          	beq	sp,t2,80001ff8 <test_1008>
80001ff4:	0c50606f          	j	800088b8 <fail>

80001ff8 <test_1008>:
80001ff8:	3f000193          	li	gp,1008
80001ffc:	ff0100b7          	lui	ra,0xff010
80002000:	f0008093          	addi	ra,ra,-256 # ff00ff00 <_end+0x7f005e30>
80002004:	0010c0b3          	xor	ra,ra,ra
80002008:	00000393          	li	t2,0
8000200c:	00708463          	beq	ra,t2,80002014 <test_1009>
80002010:	0a90606f          	j	800088b8 <fail>

80002014 <test_1009>:
80002014:	3f100193          	li	gp,1009
80002018:	00000213          	li	tp,0
8000201c:	ff0100b7          	lui	ra,0xff010
80002020:	f0008093          	addi	ra,ra,-256 # ff00ff00 <_end+0x7f005e30>
80002024:	0f0f1137          	lui	sp,0xf0f1
80002028:	f0f10113          	addi	sp,sp,-241 # f0f0f0f <_start-0x70f0f0f1>
8000202c:	0020c733          	xor	a4,ra,sp
80002030:	00070313          	mv	t1,a4
80002034:	00120213          	addi	tp,tp,1 # 1 <_start-0x7fffffff>
80002038:	00200293          	li	t0,2
8000203c:	fe5210e3          	bne	tp,t0,8000201c <test_1009+0x8>
80002040:	f00ff3b7          	lui	t2,0xf00ff
80002044:	00f38393          	addi	t2,t2,15 # f00ff00f <_end+0x700f4f3f>
80002048:	00730463          	beq	t1,t2,80002050 <test_1010>
8000204c:	06d0606f          	j	800088b8 <fail>

80002050 <test_1010>:
80002050:	3f200193          	li	gp,1010
80002054:	00000213          	li	tp,0
80002058:	0ff010b7          	lui	ra,0xff01
8000205c:	ff008093          	addi	ra,ra,-16 # ff00ff0 <_start-0x700ff010>
80002060:	f0f0f137          	lui	sp,0xf0f0f
80002064:	0f010113          	addi	sp,sp,240 # f0f0f0f0 <_end+0x70f05020>
80002068:	0020c733          	xor	a4,ra,sp
8000206c:	00000013          	nop
80002070:	00070313          	mv	t1,a4
80002074:	00120213          	addi	tp,tp,1 # 1 <_start-0x7fffffff>
80002078:	00200293          	li	t0,2
8000207c:	fc521ee3          	bne	tp,t0,80002058 <test_1010+0x8>
80002080:	ff0103b7          	lui	t2,0xff010
80002084:	f0038393          	addi	t2,t2,-256 # ff00ff00 <_end+0x7f005e30>
80002088:	00730463          	beq	t1,t2,80002090 <test_1011>
8000208c:	02d0606f          	j	800088b8 <fail>

80002090 <test_1011>:
80002090:	3f300193          	li	gp,1011
80002094:	00000213          	li	tp,0
80002098:	00ff00b7          	lui	ra,0xff0
8000209c:	0ff08093          	addi	ra,ra,255 # ff00ff <_start-0x7f00ff01>
800020a0:	0f0f1137          	lui	sp,0xf0f1
800020a4:	f0f10113          	addi	sp,sp,-241 # f0f0f0f <_start-0x70f0f0f1>
800020a8:	0020c733          	xor	a4,ra,sp
800020ac:	00000013          	nop
800020b0:	00000013          	nop
800020b4:	00070313          	mv	t1,a4
800020b8:	00120213          	addi	tp,tp,1 # 1 <_start-0x7fffffff>
800020bc:	00200293          	li	t0,2
800020c0:	fc521ce3          	bne	tp,t0,80002098 <test_1011+0x8>
800020c4:	0ff013b7          	lui	t2,0xff01
800020c8:	ff038393          	addi	t2,t2,-16 # ff00ff0 <_start-0x700ff010>
800020cc:	00730463          	beq	t1,t2,800020d4 <test_1012>
800020d0:	7e80606f          	j	800088b8 <fail>

800020d4 <test_1012>:
800020d4:	3f400193          	li	gp,1012
800020d8:	00000213          	li	tp,0
800020dc:	ff0100b7          	lui	ra,0xff010
800020e0:	f0008093          	addi	ra,ra,-256 # ff00ff00 <_end+0x7f005e30>
800020e4:	0f0f1137          	lui	sp,0xf0f1
800020e8:	f0f10113          	addi	sp,sp,-241 # f0f0f0f <_start-0x70f0f0f1>
800020ec:	0020c733          	xor	a4,ra,sp
800020f0:	00120213          	addi	tp,tp,1 # 1 <_start-0x7fffffff>
800020f4:	00200293          	li	t0,2
800020f8:	fe5212e3          	bne	tp,t0,800020dc <test_1012+0x8>
800020fc:	f00ff3b7          	lui	t2,0xf00ff
80002100:	00f38393          	addi	t2,t2,15 # f00ff00f <_end+0x700f4f3f>
80002104:	00770463          	beq	a4,t2,8000210c <test_1013>
80002108:	7b00606f          	j	800088b8 <fail>

8000210c <test_1013>:
8000210c:	3f500193          	li	gp,1013
80002110:	00000213          	li	tp,0
80002114:	0ff010b7          	lui	ra,0xff01
80002118:	ff008093          	addi	ra,ra,-16 # ff00ff0 <_start-0x700ff010>
8000211c:	f0f0f137          	lui	sp,0xf0f0f
80002120:	0f010113          	addi	sp,sp,240 # f0f0f0f0 <_end+0x70f05020>
80002124:	00000013          	nop
80002128:	0020c733          	xor	a4,ra,sp
8000212c:	00120213          	addi	tp,tp,1 # 1 <_start-0x7fffffff>
80002130:	00200293          	li	t0,2
80002134:	fe5210e3          	bne	tp,t0,80002114 <test_1013+0x8>
80002138:	ff0103b7          	lui	t2,0xff010
8000213c:	f0038393          	addi	t2,t2,-256 # ff00ff00 <_end+0x7f005e30>
80002140:	00770463          	beq	a4,t2,80002148 <test_1014>
80002144:	7740606f          	j	800088b8 <fail>

80002148 <test_1014>:
80002148:	3f600193          	li	gp,1014
8000214c:	00000213          	li	tp,0
80002150:	00ff00b7          	lui	ra,0xff0
80002154:	0ff08093          	addi	ra,ra,255 # ff00ff <_start-0x7f00ff01>
80002158:	0f0f1137          	lui	sp,0xf0f1
8000215c:	f0f10113          	addi	sp,sp,-241 # f0f0f0f <_start-0x70f0f0f1>
80002160:	00000013          	nop
80002164:	00000013          	nop
80002168:	0020c733          	xor	a4,ra,sp
8000216c:	00120213          	addi	tp,tp,1 # 1 <_start-0x7fffffff>
80002170:	00200293          	li	t0,2
80002174:	fc521ee3          	bne	tp,t0,80002150 <test_1014+0x8>
80002178:	0ff013b7          	lui	t2,0xff01
8000217c:	ff038393          	addi	t2,t2,-16 # ff00ff0 <_start-0x700ff010>
80002180:	00770463          	beq	a4,t2,80002188 <test_1015>
80002184:	7340606f          	j	800088b8 <fail>

80002188 <test_1015>:
80002188:	3f700193          	li	gp,1015
8000218c:	00000213          	li	tp,0
80002190:	ff0100b7          	lui	ra,0xff010
80002194:	f0008093          	addi	ra,ra,-256 # ff00ff00 <_end+0x7f005e30>
80002198:	00000013          	nop
8000219c:	0f0f1137          	lui	sp,0xf0f1
800021a0:	f0f10113          	addi	sp,sp,-241 # f0f0f0f <_start-0x70f0f0f1>
800021a4:	0020c733          	xor	a4,ra,sp
800021a8:	00120213          	addi	tp,tp,1 # 1 <_start-0x7fffffff>
800021ac:	00200293          	li	t0,2
800021b0:	fe5210e3          	bne	tp,t0,80002190 <test_1015+0x8>
800021b4:	f00ff3b7          	lui	t2,0xf00ff
800021b8:	00f38393          	addi	t2,t2,15 # f00ff00f <_end+0x700f4f3f>
800021bc:	00770463          	beq	a4,t2,800021c4 <test_1016>
800021c0:	6f80606f          	j	800088b8 <fail>

800021c4 <test_1016>:
800021c4:	3f800193          	li	gp,1016
800021c8:	00000213          	li	tp,0
800021cc:	0ff010b7          	lui	ra,0xff01
800021d0:	ff008093          	addi	ra,ra,-16 # ff00ff0 <_start-0x700ff010>
800021d4:	00000013          	nop
800021d8:	f0f0f137          	lui	sp,0xf0f0f
800021dc:	0f010113          	addi	sp,sp,240 # f0f0f0f0 <_end+0x70f05020>
800021e0:	00000013          	nop
800021e4:	0020c733          	xor	a4,ra,sp
800021e8:	00120213          	addi	tp,tp,1 # 1 <_start-0x7fffffff>
800021ec:	00200293          	li	t0,2
800021f0:	fc521ee3          	bne	tp,t0,800021cc <test_1016+0x8>
800021f4:	ff0103b7          	lui	t2,0xff010
800021f8:	f0038393          	addi	t2,t2,-256 # ff00ff00 <_end+0x7f005e30>
800021fc:	00770463          	beq	a4,t2,80002204 <test_1017>
80002200:	6b80606f          	j	800088b8 <fail>

80002204 <test_1017>:
80002204:	3f900193          	li	gp,1017
80002208:	00000213          	li	tp,0
8000220c:	00ff00b7          	lui	ra,0xff0
80002210:	0ff08093          	addi	ra,ra,255 # ff00ff <_start-0x7f00ff01>
80002214:	00000013          	nop
80002218:	00000013          	nop
8000221c:	0f0f1137          	lui	sp,0xf0f1
80002220:	f0f10113          	addi	sp,sp,-241 # f0f0f0f <_start-0x70f0f0f1>
80002224:	0020c733          	xor	a4,ra,sp
80002228:	00120213          	addi	tp,tp,1 # 1 <_start-0x7fffffff>
8000222c:	00200293          	li	t0,2
80002230:	fc521ee3          	bne	tp,t0,8000220c <test_1017+0x8>
80002234:	0ff013b7          	lui	t2,0xff01
80002238:	ff038393          	addi	t2,t2,-16 # ff00ff0 <_start-0x700ff010>
8000223c:	00770463          	beq	a4,t2,80002244 <test_1018>
80002240:	6780606f          	j	800088b8 <fail>

80002244 <test_1018>:
80002244:	3fa00193          	li	gp,1018
80002248:	00000213          	li	tp,0
8000224c:	0f0f1137          	lui	sp,0xf0f1
80002250:	f0f10113          	addi	sp,sp,-241 # f0f0f0f <_start-0x70f0f0f1>
80002254:	ff0100b7          	lui	ra,0xff010
80002258:	f0008093          	addi	ra,ra,-256 # ff00ff00 <_end+0x7f005e30>
8000225c:	0020c733          	xor	a4,ra,sp
80002260:	00120213          	addi	tp,tp,1 # 1 <_start-0x7fffffff>
80002264:	00200293          	li	t0,2
80002268:	fe5212e3          	bne	tp,t0,8000224c <test_1018+0x8>
8000226c:	f00ff3b7          	lui	t2,0xf00ff
80002270:	00f38393          	addi	t2,t2,15 # f00ff00f <_end+0x700f4f3f>
80002274:	00770463          	beq	a4,t2,8000227c <test_1019>
80002278:	6400606f          	j	800088b8 <fail>

8000227c <test_1019>:
8000227c:	3fb00193          	li	gp,1019
80002280:	00000213          	li	tp,0
80002284:	f0f0f137          	lui	sp,0xf0f0f
80002288:	0f010113          	addi	sp,sp,240 # f0f0f0f0 <_end+0x70f05020>
8000228c:	0ff010b7          	lui	ra,0xff01
80002290:	ff008093          	addi	ra,ra,-16 # ff00ff0 <_start-0x700ff010>
80002294:	00000013          	nop
80002298:	0020c733          	xor	a4,ra,sp
8000229c:	00120213          	addi	tp,tp,1 # 1 <_start-0x7fffffff>
800022a0:	00200293          	li	t0,2
800022a4:	fe5210e3          	bne	tp,t0,80002284 <test_1019+0x8>
800022a8:	ff0103b7          	lui	t2,0xff010
800022ac:	f0038393          	addi	t2,t2,-256 # ff00ff00 <_end+0x7f005e30>
800022b0:	00770463          	beq	a4,t2,800022b8 <test_1020>
800022b4:	6040606f          	j	800088b8 <fail>

800022b8 <test_1020>:
800022b8:	3fc00193          	li	gp,1020
800022bc:	00000213          	li	tp,0
800022c0:	0f0f1137          	lui	sp,0xf0f1
800022c4:	f0f10113          	addi	sp,sp,-241 # f0f0f0f <_start-0x70f0f0f1>
800022c8:	00ff00b7          	lui	ra,0xff0
800022cc:	0ff08093          	addi	ra,ra,255 # ff00ff <_start-0x7f00ff01>
800022d0:	00000013          	nop
800022d4:	00000013          	nop
800022d8:	0020c733          	xor	a4,ra,sp
800022dc:	00120213          	addi	tp,tp,1 # 1 <_start-0x7fffffff>
800022e0:	00200293          	li	t0,2
800022e4:	fc521ee3          	bne	tp,t0,800022c0 <test_1020+0x8>
800022e8:	0ff013b7          	lui	t2,0xff01
800022ec:	ff038393          	addi	t2,t2,-16 # ff00ff0 <_start-0x700ff010>
800022f0:	00770463          	beq	a4,t2,800022f8 <test_1021>
800022f4:	5c40606f          	j	800088b8 <fail>

800022f8 <test_1021>:
800022f8:	3fd00193          	li	gp,1021
800022fc:	00000213          	li	tp,0
80002300:	0f0f1137          	lui	sp,0xf0f1
80002304:	f0f10113          	addi	sp,sp,-241 # f0f0f0f <_start-0x70f0f0f1>
80002308:	00000013          	nop
8000230c:	ff0100b7          	lui	ra,0xff010
80002310:	f0008093          	addi	ra,ra,-256 # ff00ff00 <_end+0x7f005e30>
80002314:	0020c733          	xor	a4,ra,sp
80002318:	00120213          	addi	tp,tp,1 # 1 <_start-0x7fffffff>
8000231c:	00200293          	li	t0,2
80002320:	fe5210e3          	bne	tp,t0,80002300 <test_1021+0x8>
80002324:	f00ff3b7          	lui	t2,0xf00ff
80002328:	00f38393          	addi	t2,t2,15 # f00ff00f <_end+0x700f4f3f>
8000232c:	00770463          	beq	a4,t2,80002334 <test_1022>
80002330:	5880606f          	j	800088b8 <fail>

80002334 <test_1022>:
80002334:	3fe00193          	li	gp,1022
80002338:	00000213          	li	tp,0
8000233c:	f0f0f137          	lui	sp,0xf0f0f
80002340:	0f010113          	addi	sp,sp,240 # f0f0f0f0 <_end+0x70f05020>
80002344:	00000013          	nop
80002348:	0ff010b7          	lui	ra,0xff01
8000234c:	ff008093          	addi	ra,ra,-16 # ff00ff0 <_start-0x700ff010>
80002350:	00000013          	nop
80002354:	0020c733          	xor	a4,ra,sp
80002358:	00120213          	addi	tp,tp,1 # 1 <_start-0x7fffffff>
8000235c:	00200293          	li	t0,2
80002360:	fc521ee3          	bne	tp,t0,8000233c <test_1022+0x8>
80002364:	ff0103b7          	lui	t2,0xff010
80002368:	f0038393          	addi	t2,t2,-256 # ff00ff00 <_end+0x7f005e30>
8000236c:	00770463          	beq	a4,t2,80002374 <test_1023>
80002370:	5480606f          	j	800088b8 <fail>

80002374 <test_1023>:
80002374:	3ff00193          	li	gp,1023
80002378:	00000213          	li	tp,0
8000237c:	0f0f1137          	lui	sp,0xf0f1
80002380:	f0f10113          	addi	sp,sp,-241 # f0f0f0f <_start-0x70f0f0f1>
80002384:	00000013          	nop
80002388:	00000013          	nop
8000238c:	00ff00b7          	lui	ra,0xff0
80002390:	0ff08093          	addi	ra,ra,255 # ff00ff <_start-0x7f00ff01>
80002394:	0020c733          	xor	a4,ra,sp
80002398:	00120213          	addi	tp,tp,1 # 1 <_start-0x7fffffff>
8000239c:	00200293          	li	t0,2
800023a0:	fc521ee3          	bne	tp,t0,8000237c <test_1023+0x8>
800023a4:	0ff013b7          	lui	t2,0xff01
800023a8:	ff038393          	addi	t2,t2,-16 # ff00ff0 <_start-0x700ff010>
800023ac:	00770463          	beq	a4,t2,800023b4 <test_1024>
800023b0:	5080606f          	j	800088b8 <fail>

800023b4 <test_1024>:
800023b4:	40000193          	li	gp,1024
800023b8:	ff0100b7          	lui	ra,0xff010
800023bc:	f0008093          	addi	ra,ra,-256 # ff00ff00 <_end+0x7f005e30>
800023c0:	00104133          	xor	sp,zero,ra
800023c4:	ff0103b7          	lui	t2,0xff010
800023c8:	f0038393          	addi	t2,t2,-256 # ff00ff00 <_end+0x7f005e30>
800023cc:	00710463          	beq	sp,t2,800023d4 <test_1025>
800023d0:	4e80606f          	j	800088b8 <fail>

800023d4 <test_1025>:
800023d4:	40100193          	li	gp,1025
800023d8:	00ff00b7          	lui	ra,0xff0
800023dc:	0ff08093          	addi	ra,ra,255 # ff00ff <_start-0x7f00ff01>
800023e0:	0000c133          	xor	sp,ra,zero
800023e4:	00ff03b7          	lui	t2,0xff0
800023e8:	0ff38393          	addi	t2,t2,255 # ff00ff <_start-0x7f00ff01>
800023ec:	00710463          	beq	sp,t2,800023f4 <test_1026>
800023f0:	4c80606f          	j	800088b8 <fail>

800023f4 <test_1026>:
800023f4:	40200193          	li	gp,1026
800023f8:	000040b3          	xor	ra,zero,zero
800023fc:	00000393          	li	t2,0
80002400:	00708463          	beq	ra,t2,80002408 <test_1027>
80002404:	4b40606f          	j	800088b8 <fail>

80002408 <test_1027>:
80002408:	40300193          	li	gp,1027
8000240c:	111110b7          	lui	ra,0x11111
80002410:	11108093          	addi	ra,ra,273 # 11111111 <_start-0x6eeeeeef>
80002414:	22222137          	lui	sp,0x22222
80002418:	22210113          	addi	sp,sp,546 # 22222222 <_start-0x5dddddde>
8000241c:	0020c033          	xor	zero,ra,sp
80002420:	00000393          	li	t2,0
80002424:	00700463          	beq	zero,t2,8000242c <test_1102>
80002428:	4900606f          	j	800088b8 <fail>

8000242c <test_1102>:
8000242c:	44e00193          	li	gp,1102
80002430:	00000093          	li	ra,0
80002434:	00100113          	li	sp,1
80002438:	0020c863          	blt	ra,sp,80002448 <test_1102+0x1c>
8000243c:	00300463          	beq	zero,gp,80002444 <test_1102+0x18>
80002440:	4780606f          	j	800088b8 <fail>
80002444:	00301863          	bne	zero,gp,80002454 <test_1103>
80002448:	fe20cee3          	blt	ra,sp,80002444 <test_1102+0x18>
8000244c:	00300463          	beq	zero,gp,80002454 <test_1103>
80002450:	4680606f          	j	800088b8 <fail>

80002454 <test_1103>:
80002454:	44f00193          	li	gp,1103
80002458:	fff00093          	li	ra,-1
8000245c:	00100113          	li	sp,1
80002460:	0020c863          	blt	ra,sp,80002470 <test_1103+0x1c>
80002464:	00300463          	beq	zero,gp,8000246c <test_1103+0x18>
80002468:	4500606f          	j	800088b8 <fail>
8000246c:	00301863          	bne	zero,gp,8000247c <test_1104>
80002470:	fe20cee3          	blt	ra,sp,8000246c <test_1103+0x18>
80002474:	00300463          	beq	zero,gp,8000247c <test_1104>
80002478:	4400606f          	j	800088b8 <fail>

8000247c <test_1104>:
8000247c:	45000193          	li	gp,1104
80002480:	ffe00093          	li	ra,-2
80002484:	fff00113          	li	sp,-1
80002488:	0020c863          	blt	ra,sp,80002498 <test_1104+0x1c>
8000248c:	00300463          	beq	zero,gp,80002494 <test_1104+0x18>
80002490:	4280606f          	j	800088b8 <fail>
80002494:	00301863          	bne	zero,gp,800024a4 <test_1105>
80002498:	fe20cee3          	blt	ra,sp,80002494 <test_1104+0x18>
8000249c:	00300463          	beq	zero,gp,800024a4 <test_1105>
800024a0:	4180606f          	j	800088b8 <fail>

800024a4 <test_1105>:
800024a4:	45100193          	li	gp,1105
800024a8:	00100093          	li	ra,1
800024ac:	00000113          	li	sp,0
800024b0:	0020c463          	blt	ra,sp,800024b8 <test_1105+0x14>
800024b4:	00301663          	bne	zero,gp,800024c0 <test_1105+0x1c>
800024b8:	00300463          	beq	zero,gp,800024c0 <test_1105+0x1c>
800024bc:	3fc0606f          	j	800088b8 <fail>
800024c0:	fe20cce3          	blt	ra,sp,800024b8 <test_1105+0x14>

800024c4 <test_1106>:
800024c4:	45200193          	li	gp,1106
800024c8:	00100093          	li	ra,1
800024cc:	fff00113          	li	sp,-1
800024d0:	0020c463          	blt	ra,sp,800024d8 <test_1106+0x14>
800024d4:	00301663          	bne	zero,gp,800024e0 <test_1106+0x1c>
800024d8:	00300463          	beq	zero,gp,800024e0 <test_1106+0x1c>
800024dc:	3dc0606f          	j	800088b8 <fail>
800024e0:	fe20cce3          	blt	ra,sp,800024d8 <test_1106+0x14>

800024e4 <test_1107>:
800024e4:	45300193          	li	gp,1107
800024e8:	fff00093          	li	ra,-1
800024ec:	ffe00113          	li	sp,-2
800024f0:	0020c463          	blt	ra,sp,800024f8 <test_1107+0x14>
800024f4:	00301663          	bne	zero,gp,80002500 <test_1107+0x1c>
800024f8:	00300463          	beq	zero,gp,80002500 <test_1107+0x1c>
800024fc:	3bc0606f          	j	800088b8 <fail>
80002500:	fe20cce3          	blt	ra,sp,800024f8 <test_1107+0x14>

80002504 <test_1108>:
80002504:	45400193          	li	gp,1108
80002508:	00100093          	li	ra,1
8000250c:	ffe00113          	li	sp,-2
80002510:	0020c463          	blt	ra,sp,80002518 <test_1108+0x14>
80002514:	00301663          	bne	zero,gp,80002520 <test_1108+0x1c>
80002518:	00300463          	beq	zero,gp,80002520 <test_1108+0x1c>
8000251c:	39c0606f          	j	800088b8 <fail>
80002520:	fe20cce3          	blt	ra,sp,80002518 <test_1108+0x14>

80002524 <test_1109>:
80002524:	45500193          	li	gp,1109
80002528:	00000213          	li	tp,0
8000252c:	00000093          	li	ra,0
80002530:	fff00113          	li	sp,-1
80002534:	0020d463          	bge	ra,sp,8000253c <test_1109+0x18>
80002538:	3800606f          	j	800088b8 <fail>
8000253c:	00120213          	addi	tp,tp,1 # 1 <_start-0x7fffffff>
80002540:	00200293          	li	t0,2
80002544:	fe5214e3          	bne	tp,t0,8000252c <test_1109+0x8>

80002548 <test_1110>:
80002548:	45600193          	li	gp,1110
8000254c:	00000213          	li	tp,0
80002550:	00000093          	li	ra,0
80002554:	fff00113          	li	sp,-1
80002558:	00000013          	nop
8000255c:	0020d463          	bge	ra,sp,80002564 <test_1110+0x1c>
80002560:	3580606f          	j	800088b8 <fail>
80002564:	00120213          	addi	tp,tp,1 # 1 <_start-0x7fffffff>
80002568:	00200293          	li	t0,2
8000256c:	fe5212e3          	bne	tp,t0,80002550 <test_1110+0x8>

80002570 <test_1111>:
80002570:	45700193          	li	gp,1111
80002574:	00000213          	li	tp,0
80002578:	00000093          	li	ra,0
8000257c:	fff00113          	li	sp,-1
80002580:	00000013          	nop
80002584:	00000013          	nop
80002588:	0020d463          	bge	ra,sp,80002590 <test_1111+0x20>
8000258c:	32c0606f          	j	800088b8 <fail>
80002590:	00120213          	addi	tp,tp,1 # 1 <_start-0x7fffffff>
80002594:	00200293          	li	t0,2
80002598:	fe5210e3          	bne	tp,t0,80002578 <test_1111+0x8>

8000259c <test_1112>:
8000259c:	45800193          	li	gp,1112
800025a0:	00000213          	li	tp,0
800025a4:	00000093          	li	ra,0
800025a8:	00000013          	nop
800025ac:	fff00113          	li	sp,-1
800025b0:	0020d463          	bge	ra,sp,800025b8 <test_1112+0x1c>
800025b4:	3040606f          	j	800088b8 <fail>
800025b8:	00120213          	addi	tp,tp,1 # 1 <_start-0x7fffffff>
800025bc:	00200293          	li	t0,2
800025c0:	fe5212e3          	bne	tp,t0,800025a4 <test_1112+0x8>

800025c4 <test_1113>:
800025c4:	45900193          	li	gp,1113
800025c8:	00000213          	li	tp,0
800025cc:	00000093          	li	ra,0
800025d0:	00000013          	nop
800025d4:	fff00113          	li	sp,-1
800025d8:	00000013          	nop
800025dc:	0020d463          	bge	ra,sp,800025e4 <test_1113+0x20>
800025e0:	2d80606f          	j	800088b8 <fail>
800025e4:	00120213          	addi	tp,tp,1 # 1 <_start-0x7fffffff>
800025e8:	00200293          	li	t0,2
800025ec:	fe5210e3          	bne	tp,t0,800025cc <test_1113+0x8>

800025f0 <test_1114>:
800025f0:	45a00193          	li	gp,1114
800025f4:	00000213          	li	tp,0
800025f8:	00000093          	li	ra,0
800025fc:	00000013          	nop
80002600:	00000013          	nop
80002604:	fff00113          	li	sp,-1
80002608:	0020d463          	bge	ra,sp,80002610 <test_1114+0x20>
8000260c:	2ac0606f          	j	800088b8 <fail>
80002610:	00120213          	addi	tp,tp,1 # 1 <_start-0x7fffffff>
80002614:	00200293          	li	t0,2
80002618:	fe5210e3          	bne	tp,t0,800025f8 <test_1114+0x8>

8000261c <test_1115>:
8000261c:	45b00193          	li	gp,1115
80002620:	00000213          	li	tp,0
80002624:	00000093          	li	ra,0
80002628:	fff00113          	li	sp,-1
8000262c:	0020d463          	bge	ra,sp,80002634 <test_1115+0x18>
80002630:	2880606f          	j	800088b8 <fail>
80002634:	00120213          	addi	tp,tp,1 # 1 <_start-0x7fffffff>
80002638:	00200293          	li	t0,2
8000263c:	fe5214e3          	bne	tp,t0,80002624 <test_1115+0x8>

80002640 <test_1116>:
80002640:	45c00193          	li	gp,1116
80002644:	00000213          	li	tp,0
80002648:	00000093          	li	ra,0
8000264c:	fff00113          	li	sp,-1
80002650:	00000013          	nop
80002654:	0020d463          	bge	ra,sp,8000265c <test_1116+0x1c>
80002658:	2600606f          	j	800088b8 <fail>
8000265c:	00120213          	addi	tp,tp,1 # 1 <_start-0x7fffffff>
80002660:	00200293          	li	t0,2
80002664:	fe5212e3          	bne	tp,t0,80002648 <test_1116+0x8>

80002668 <test_1117>:
80002668:	45d00193          	li	gp,1117
8000266c:	00000213          	li	tp,0
80002670:	00000093          	li	ra,0
80002674:	fff00113          	li	sp,-1
80002678:	00000013          	nop
8000267c:	00000013          	nop
80002680:	0020d463          	bge	ra,sp,80002688 <test_1117+0x20>
80002684:	2340606f          	j	800088b8 <fail>
80002688:	00120213          	addi	tp,tp,1 # 1 <_start-0x7fffffff>
8000268c:	00200293          	li	t0,2
80002690:	fe5210e3          	bne	tp,t0,80002670 <test_1117+0x8>

80002694 <test_1118>:
80002694:	45e00193          	li	gp,1118
80002698:	00000213          	li	tp,0
8000269c:	00000093          	li	ra,0
800026a0:	00000013          	nop
800026a4:	fff00113          	li	sp,-1
800026a8:	0020d463          	bge	ra,sp,800026b0 <test_1118+0x1c>
800026ac:	20c0606f          	j	800088b8 <fail>
800026b0:	00120213          	addi	tp,tp,1 # 1 <_start-0x7fffffff>
800026b4:	00200293          	li	t0,2
800026b8:	fe5212e3          	bne	tp,t0,8000269c <test_1118+0x8>

800026bc <test_1119>:
800026bc:	45f00193          	li	gp,1119
800026c0:	00000213          	li	tp,0
800026c4:	00000093          	li	ra,0
800026c8:	00000013          	nop
800026cc:	fff00113          	li	sp,-1
800026d0:	00000013          	nop
800026d4:	0020d463          	bge	ra,sp,800026dc <test_1119+0x20>
800026d8:	1e00606f          	j	800088b8 <fail>
800026dc:	00120213          	addi	tp,tp,1 # 1 <_start-0x7fffffff>
800026e0:	00200293          	li	t0,2
800026e4:	fe5210e3          	bne	tp,t0,800026c4 <test_1119+0x8>

800026e8 <test_1120>:
800026e8:	46000193          	li	gp,1120
800026ec:	00000213          	li	tp,0
800026f0:	00000093          	li	ra,0
800026f4:	00000013          	nop
800026f8:	00000013          	nop
800026fc:	fff00113          	li	sp,-1
80002700:	0020d463          	bge	ra,sp,80002708 <test_1120+0x20>
80002704:	1b40606f          	j	800088b8 <fail>
80002708:	00120213          	addi	tp,tp,1 # 1 <_start-0x7fffffff>
8000270c:	00200293          	li	t0,2
80002710:	fe5210e3          	bne	tp,t0,800026f0 <test_1120+0x8>

80002714 <test_1121>:
80002714:	46100193          	li	gp,1121
80002718:	00100093          	li	ra,1
8000271c:	00104a63          	bgtz	ra,80002730 <test_1121+0x1c>
80002720:	00108093          	addi	ra,ra,1
80002724:	00108093          	addi	ra,ra,1
80002728:	00108093          	addi	ra,ra,1
8000272c:	00108093          	addi	ra,ra,1
80002730:	00108093          	addi	ra,ra,1
80002734:	00108093          	addi	ra,ra,1
80002738:	00300393          	li	t2,3
8000273c:	00708463          	beq	ra,t2,80002744 <test_1202>
80002740:	1780606f          	j	800088b8 <fail>

80002744 <test_1202>:
80002744:	4b200193          	li	gp,1202
80002748:	00000093          	li	ra,0
8000274c:	00100113          	li	sp,1
80002750:	00209863          	bne	ra,sp,80002760 <test_1202+0x1c>
80002754:	00300463          	beq	zero,gp,8000275c <test_1202+0x18>
80002758:	1600606f          	j	800088b8 <fail>
8000275c:	00301863          	bne	zero,gp,8000276c <test_1203>
80002760:	fe209ee3          	bne	ra,sp,8000275c <test_1202+0x18>
80002764:	00300463          	beq	zero,gp,8000276c <test_1203>
80002768:	1500606f          	j	800088b8 <fail>

8000276c <test_1203>:
8000276c:	4b300193          	li	gp,1203
80002770:	00100093          	li	ra,1
80002774:	00000113          	li	sp,0
80002778:	00209863          	bne	ra,sp,80002788 <test_1203+0x1c>
8000277c:	00300463          	beq	zero,gp,80002784 <test_1203+0x18>
80002780:	1380606f          	j	800088b8 <fail>
80002784:	00301863          	bne	zero,gp,80002794 <test_1204>
80002788:	fe209ee3          	bne	ra,sp,80002784 <test_1203+0x18>
8000278c:	00300463          	beq	zero,gp,80002794 <test_1204>
80002790:	1280606f          	j	800088b8 <fail>

80002794 <test_1204>:
80002794:	4b400193          	li	gp,1204
80002798:	fff00093          	li	ra,-1
8000279c:	00100113          	li	sp,1
800027a0:	00209863          	bne	ra,sp,800027b0 <test_1204+0x1c>
800027a4:	00300463          	beq	zero,gp,800027ac <test_1204+0x18>
800027a8:	1100606f          	j	800088b8 <fail>
800027ac:	00301863          	bne	zero,gp,800027bc <test_1205>
800027b0:	fe209ee3          	bne	ra,sp,800027ac <test_1204+0x18>
800027b4:	00300463          	beq	zero,gp,800027bc <test_1205>
800027b8:	1000606f          	j	800088b8 <fail>

800027bc <test_1205>:
800027bc:	4b500193          	li	gp,1205
800027c0:	00100093          	li	ra,1
800027c4:	fff00113          	li	sp,-1
800027c8:	00209863          	bne	ra,sp,800027d8 <test_1205+0x1c>
800027cc:	00300463          	beq	zero,gp,800027d4 <test_1205+0x18>
800027d0:	0e80606f          	j	800088b8 <fail>
800027d4:	00301863          	bne	zero,gp,800027e4 <test_1206>
800027d8:	fe209ee3          	bne	ra,sp,800027d4 <test_1205+0x18>
800027dc:	00300463          	beq	zero,gp,800027e4 <test_1206>
800027e0:	0d80606f          	j	800088b8 <fail>

800027e4 <test_1206>:
800027e4:	4b600193          	li	gp,1206
800027e8:	00000093          	li	ra,0
800027ec:	00000113          	li	sp,0
800027f0:	00209463          	bne	ra,sp,800027f8 <test_1206+0x14>
800027f4:	00301663          	bne	zero,gp,80002800 <test_1206+0x1c>
800027f8:	00300463          	beq	zero,gp,80002800 <test_1206+0x1c>
800027fc:	0bc0606f          	j	800088b8 <fail>
80002800:	fe209ce3          	bne	ra,sp,800027f8 <test_1206+0x14>

80002804 <test_1207>:
80002804:	4b700193          	li	gp,1207
80002808:	00100093          	li	ra,1
8000280c:	00100113          	li	sp,1
80002810:	00209463          	bne	ra,sp,80002818 <test_1207+0x14>
80002814:	00301663          	bne	zero,gp,80002820 <test_1207+0x1c>
80002818:	00300463          	beq	zero,gp,80002820 <test_1207+0x1c>
8000281c:	09c0606f          	j	800088b8 <fail>
80002820:	fe209ce3          	bne	ra,sp,80002818 <test_1207+0x14>

80002824 <test_1208>:
80002824:	4b800193          	li	gp,1208
80002828:	fff00093          	li	ra,-1
8000282c:	fff00113          	li	sp,-1
80002830:	00209463          	bne	ra,sp,80002838 <test_1208+0x14>
80002834:	00301663          	bne	zero,gp,80002840 <test_1208+0x1c>
80002838:	00300463          	beq	zero,gp,80002840 <test_1208+0x1c>
8000283c:	07c0606f          	j	800088b8 <fail>
80002840:	fe209ce3          	bne	ra,sp,80002838 <test_1208+0x14>

80002844 <test_1209>:
80002844:	4b900193          	li	gp,1209
80002848:	00000213          	li	tp,0
8000284c:	00000093          	li	ra,0
80002850:	00000113          	li	sp,0
80002854:	00208463          	beq	ra,sp,8000285c <test_1209+0x18>
80002858:	0600606f          	j	800088b8 <fail>
8000285c:	00120213          	addi	tp,tp,1 # 1 <_start-0x7fffffff>
80002860:	00200293          	li	t0,2
80002864:	fe5214e3          	bne	tp,t0,8000284c <test_1209+0x8>

80002868 <test_1210>:
80002868:	4ba00193          	li	gp,1210
8000286c:	00000213          	li	tp,0
80002870:	00000093          	li	ra,0
80002874:	00000113          	li	sp,0
80002878:	00000013          	nop
8000287c:	00208463          	beq	ra,sp,80002884 <test_1210+0x1c>
80002880:	0380606f          	j	800088b8 <fail>
80002884:	00120213          	addi	tp,tp,1 # 1 <_start-0x7fffffff>
80002888:	00200293          	li	t0,2
8000288c:	fe5212e3          	bne	tp,t0,80002870 <test_1210+0x8>

80002890 <test_1211>:
80002890:	4bb00193          	li	gp,1211
80002894:	00000213          	li	tp,0
80002898:	00000093          	li	ra,0
8000289c:	00000113          	li	sp,0
800028a0:	00000013          	nop
800028a4:	00000013          	nop
800028a8:	00208463          	beq	ra,sp,800028b0 <test_1211+0x20>
800028ac:	00c0606f          	j	800088b8 <fail>
800028b0:	00120213          	addi	tp,tp,1 # 1 <_start-0x7fffffff>
800028b4:	00200293          	li	t0,2
800028b8:	fe5210e3          	bne	tp,t0,80002898 <test_1211+0x8>

800028bc <test_1212>:
800028bc:	4bc00193          	li	gp,1212
800028c0:	00000213          	li	tp,0
800028c4:	00000093          	li	ra,0
800028c8:	00000013          	nop
800028cc:	00000113          	li	sp,0
800028d0:	00208463          	beq	ra,sp,800028d8 <test_1212+0x1c>
800028d4:	7e50506f          	j	800088b8 <fail>
800028d8:	00120213          	addi	tp,tp,1 # 1 <_start-0x7fffffff>
800028dc:	00200293          	li	t0,2
800028e0:	fe5212e3          	bne	tp,t0,800028c4 <test_1212+0x8>

800028e4 <test_1213>:
800028e4:	4bd00193          	li	gp,1213
800028e8:	00000213          	li	tp,0
800028ec:	00000093          	li	ra,0
800028f0:	00000013          	nop
800028f4:	00000113          	li	sp,0
800028f8:	00000013          	nop
800028fc:	00208463          	beq	ra,sp,80002904 <test_1213+0x20>
80002900:	7b90506f          	j	800088b8 <fail>
80002904:	00120213          	addi	tp,tp,1 # 1 <_start-0x7fffffff>
80002908:	00200293          	li	t0,2
8000290c:	fe5210e3          	bne	tp,t0,800028ec <test_1213+0x8>

80002910 <test_1214>:
80002910:	4be00193          	li	gp,1214
80002914:	00000213          	li	tp,0
80002918:	00000093          	li	ra,0
8000291c:	00000013          	nop
80002920:	00000013          	nop
80002924:	00000113          	li	sp,0
80002928:	00208463          	beq	ra,sp,80002930 <test_1214+0x20>
8000292c:	78d0506f          	j	800088b8 <fail>
80002930:	00120213          	addi	tp,tp,1 # 1 <_start-0x7fffffff>
80002934:	00200293          	li	t0,2
80002938:	fe5210e3          	bne	tp,t0,80002918 <test_1214+0x8>

8000293c <test_1215>:
8000293c:	4bf00193          	li	gp,1215
80002940:	00000213          	li	tp,0
80002944:	00000093          	li	ra,0
80002948:	00000113          	li	sp,0
8000294c:	00208463          	beq	ra,sp,80002954 <test_1215+0x18>
80002950:	7690506f          	j	800088b8 <fail>
80002954:	00120213          	addi	tp,tp,1 # 1 <_start-0x7fffffff>
80002958:	00200293          	li	t0,2
8000295c:	fe5214e3          	bne	tp,t0,80002944 <test_1215+0x8>

80002960 <test_1216>:
80002960:	4c000193          	li	gp,1216
80002964:	00000213          	li	tp,0
80002968:	00000093          	li	ra,0
8000296c:	00000113          	li	sp,0
80002970:	00000013          	nop
80002974:	00208463          	beq	ra,sp,8000297c <test_1216+0x1c>
80002978:	7410506f          	j	800088b8 <fail>
8000297c:	00120213          	addi	tp,tp,1 # 1 <_start-0x7fffffff>
80002980:	00200293          	li	t0,2
80002984:	fe5212e3          	bne	tp,t0,80002968 <test_1216+0x8>

80002988 <test_1217>:
80002988:	4c100193          	li	gp,1217
8000298c:	00000213          	li	tp,0
80002990:	00000093          	li	ra,0
80002994:	00000113          	li	sp,0
80002998:	00000013          	nop
8000299c:	00000013          	nop
800029a0:	00208463          	beq	ra,sp,800029a8 <test_1217+0x20>
800029a4:	7150506f          	j	800088b8 <fail>
800029a8:	00120213          	addi	tp,tp,1 # 1 <_start-0x7fffffff>
800029ac:	00200293          	li	t0,2
800029b0:	fe5210e3          	bne	tp,t0,80002990 <test_1217+0x8>

800029b4 <test_1218>:
800029b4:	4c200193          	li	gp,1218
800029b8:	00000213          	li	tp,0
800029bc:	00000093          	li	ra,0
800029c0:	00000013          	nop
800029c4:	00000113          	li	sp,0
800029c8:	00208463          	beq	ra,sp,800029d0 <test_1218+0x1c>
800029cc:	6ed0506f          	j	800088b8 <fail>
800029d0:	00120213          	addi	tp,tp,1 # 1 <_start-0x7fffffff>
800029d4:	00200293          	li	t0,2
800029d8:	fe5212e3          	bne	tp,t0,800029bc <test_1218+0x8>

800029dc <test_1219>:
800029dc:	4c300193          	li	gp,1219
800029e0:	00000213          	li	tp,0
800029e4:	00000093          	li	ra,0
800029e8:	00000013          	nop
800029ec:	00000113          	li	sp,0
800029f0:	00000013          	nop
800029f4:	00208463          	beq	ra,sp,800029fc <test_1219+0x20>
800029f8:	6c10506f          	j	800088b8 <fail>
800029fc:	00120213          	addi	tp,tp,1 # 1 <_start-0x7fffffff>
80002a00:	00200293          	li	t0,2
80002a04:	fe5210e3          	bne	tp,t0,800029e4 <test_1219+0x8>

80002a08 <test_1220>:
80002a08:	4c400193          	li	gp,1220
80002a0c:	00000213          	li	tp,0
80002a10:	00000093          	li	ra,0
80002a14:	00000013          	nop
80002a18:	00000013          	nop
80002a1c:	00000113          	li	sp,0
80002a20:	00208463          	beq	ra,sp,80002a28 <test_1220+0x20>
80002a24:	6950506f          	j	800088b8 <fail>
80002a28:	00120213          	addi	tp,tp,1 # 1 <_start-0x7fffffff>
80002a2c:	00200293          	li	t0,2
80002a30:	fe5210e3          	bne	tp,t0,80002a10 <test_1220+0x8>

80002a34 <test_1221>:
80002a34:	4c500193          	li	gp,1221
80002a38:	00100093          	li	ra,1
80002a3c:	00009a63          	bnez	ra,80002a50 <test_1221+0x1c>
80002a40:	00108093          	addi	ra,ra,1
80002a44:	00108093          	addi	ra,ra,1
80002a48:	00108093          	addi	ra,ra,1
80002a4c:	00108093          	addi	ra,ra,1
80002a50:	00108093          	addi	ra,ra,1
80002a54:	00108093          	addi	ra,ra,1
80002a58:	00300393          	li	t2,3
80002a5c:	00708463          	beq	ra,t2,80002a64 <test_1221+0x30>
80002a60:	6590506f          	j	800088b8 <fail>
80002a64:	06f00693          	li	a3,111
80002a68:	00007517          	auipc	a0,0x7
80002a6c:	5b851503          	lh	a0,1464(a0) # 8000a020 <fence_i_insn>
80002a70:	00007597          	auipc	a1,0x7
80002a74:	5b259583          	lh	a1,1458(a1) # 8000a022 <fence_i_insn+0x2>
80002a78:	00000013          	nop
80002a7c:	00000013          	nop
80002a80:	00007297          	auipc	t0,0x7
80002a84:	5aa29223          	sh	a0,1444(t0) # 8000a024 <fence_i_insn+0x4>
80002a88:	00007297          	auipc	t0,0x7
80002a8c:	58b29f23          	sh	a1,1438(t0) # 8000a026 <fence_i_insn+0x6>
80002a90:	0000100f          	fence.i
80002a94:	00007797          	auipc	a5,0x7
80002a98:	59078793          	addi	a5,a5,1424 # 8000a024 <fence_i_insn+0x4>
80002a9c:	00078867          	jalr	a6,a5

80002aa0 <test_1302>:
80002aa0:	51600193          	li	gp,1302
80002aa4:	00000013          	nop
80002aa8:	1bc00393          	li	t2,444
80002aac:	00768463          	beq	a3,t2,80002ab4 <test_1302+0x14>
80002ab0:	6090506f          	j	800088b8 <fail>
80002ab4:	06400713          	li	a4,100
80002ab8:	fff70713          	addi	a4,a4,-1
80002abc:	fe071ee3          	bnez	a4,80002ab8 <test_1302+0x18>
80002ac0:	00007297          	auipc	t0,0x7
80002ac4:	56a29623          	sh	a0,1388(t0) # 8000a02c <fence_i_insn+0xc>
80002ac8:	00007297          	auipc	t0,0x7
80002acc:	56b29323          	sh	a1,1382(t0) # 8000a02e <fence_i_insn+0xe>
80002ad0:	0000100f          	fence.i
80002ad4:	00000013          	nop
80002ad8:	00000013          	nop
80002adc:	00000013          	nop
80002ae0:	00000013          	nop
80002ae4:	00000013          	nop
80002ae8:	00000013          	nop
80002aec:	00000013          	nop
80002af0:	00000013          	nop
80002af4:	00000013          	nop
80002af8:	00000013          	nop
80002afc:	00000013          	nop
80002b00:	00007797          	auipc	a5,0x7
80002b04:	52c78793          	addi	a5,a5,1324 # 8000a02c <fence_i_insn+0xc>
80002b08:	00078867          	jalr	a6,a5

80002b0c <test_1303>:
80002b0c:	51700193          	li	gp,1303
80002b10:	00000013          	nop
80002b14:	30900393          	li	t2,777
80002b18:	00768463          	beq	a3,t2,80002b20 <jal_test_2>
80002b1c:	59d0506f          	j	800088b8 <fail>

80002b20 <jal_test_2>:
80002b20:	57a00193          	li	gp,1402
80002b24:	00000093          	li	ra,0
80002b28:	0100026f          	jal	tp,80002b38 <jal_target_2>

80002b2c <jal_linkaddr_2>:
80002b2c:	00000013          	nop
80002b30:	00000013          	nop
80002b34:	5850506f          	j	800088b8 <fail>

80002b38 <jal_target_2>:
80002b38:	00000117          	auipc	sp,0x0
80002b3c:	ff410113          	addi	sp,sp,-12 # 80002b2c <jal_linkaddr_2>
80002b40:	00410463          	beq	sp,tp,80002b48 <test_1403>
80002b44:	5750506f          	j	800088b8 <fail>

80002b48 <test_1403>:
80002b48:	57b00193          	li	gp,1403
80002b4c:	00100093          	li	ra,1
80002b50:	0140006f          	j	80002b64 <test_1403+0x1c>
80002b54:	00108093          	addi	ra,ra,1
80002b58:	00108093          	addi	ra,ra,1
80002b5c:	00108093          	addi	ra,ra,1
80002b60:	00108093          	addi	ra,ra,1
80002b64:	00108093          	addi	ra,ra,1
80002b68:	00108093          	addi	ra,ra,1
80002b6c:	00300393          	li	t2,3
80002b70:	00708463          	beq	ra,t2,80002b78 <test_1502>
80002b74:	5450506f          	j	800088b8 <fail>

80002b78 <test_1502>:
80002b78:	5de00193          	li	gp,1502
80002b7c:	0ff00793          	li	a5,255
80002b80:	00007097          	auipc	ra,0x7
80002b84:	4c008093          	addi	ra,ra,1216 # 8000a040 <lh_tdat>
80002b88:	00009703          	lh	a4,0(ra)
80002b8c:	0ff00393          	li	t2,255
80002b90:	00770463          	beq	a4,t2,80002b98 <test_1503>
80002b94:	5250506f          	j	800088b8 <fail>

80002b98 <test_1503>:
80002b98:	5df00193          	li	gp,1503
80002b9c:	f0000793          	li	a5,-256
80002ba0:	00007097          	auipc	ra,0x7
80002ba4:	4a008093          	addi	ra,ra,1184 # 8000a040 <lh_tdat>
80002ba8:	00209703          	lh	a4,2(ra)
80002bac:	f0000393          	li	t2,-256
80002bb0:	00770463          	beq	a4,t2,80002bb8 <test_1504>
80002bb4:	5050506f          	j	800088b8 <fail>

80002bb8 <test_1504>:
80002bb8:	5e000193          	li	gp,1504
80002bbc:	000017b7          	lui	a5,0x1
80002bc0:	ff078793          	addi	a5,a5,-16 # ff0 <_start-0x7ffff010>
80002bc4:	00007097          	auipc	ra,0x7
80002bc8:	47c08093          	addi	ra,ra,1148 # 8000a040 <lh_tdat>
80002bcc:	00409703          	lh	a4,4(ra)
80002bd0:	000013b7          	lui	t2,0x1
80002bd4:	ff038393          	addi	t2,t2,-16 # ff0 <_start-0x7ffff010>
80002bd8:	00770463          	beq	a4,t2,80002be0 <test_1505>
80002bdc:	4dd0506f          	j	800088b8 <fail>

80002be0 <test_1505>:
80002be0:	5e100193          	li	gp,1505
80002be4:	fffff7b7          	lui	a5,0xfffff
80002be8:	00f78793          	addi	a5,a5,15 # fffff00f <_end+0x7fff4f3f>
80002bec:	00007097          	auipc	ra,0x7
80002bf0:	45408093          	addi	ra,ra,1108 # 8000a040 <lh_tdat>
80002bf4:	00609703          	lh	a4,6(ra)
80002bf8:	fffff3b7          	lui	t2,0xfffff
80002bfc:	00f38393          	addi	t2,t2,15 # fffff00f <_end+0x7fff4f3f>
80002c00:	00770463          	beq	a4,t2,80002c08 <test_1506>
80002c04:	4b50506f          	j	800088b8 <fail>

80002c08 <test_1506>:
80002c08:	5e200193          	li	gp,1506
80002c0c:	0ff00793          	li	a5,255
80002c10:	00007097          	auipc	ra,0x7
80002c14:	43608093          	addi	ra,ra,1078 # 8000a046 <lh_tdat4>
80002c18:	ffa09703          	lh	a4,-6(ra)
80002c1c:	0ff00393          	li	t2,255
80002c20:	00770463          	beq	a4,t2,80002c28 <test_1507>
80002c24:	4950506f          	j	800088b8 <fail>

80002c28 <test_1507>:
80002c28:	5e300193          	li	gp,1507
80002c2c:	f0000793          	li	a5,-256
80002c30:	00007097          	auipc	ra,0x7
80002c34:	41608093          	addi	ra,ra,1046 # 8000a046 <lh_tdat4>
80002c38:	ffc09703          	lh	a4,-4(ra)
80002c3c:	f0000393          	li	t2,-256
80002c40:	00770463          	beq	a4,t2,80002c48 <test_1508>
80002c44:	4750506f          	j	800088b8 <fail>

80002c48 <test_1508>:
80002c48:	5e400193          	li	gp,1508
80002c4c:	000017b7          	lui	a5,0x1
80002c50:	ff078793          	addi	a5,a5,-16 # ff0 <_start-0x7ffff010>
80002c54:	00007097          	auipc	ra,0x7
80002c58:	3f208093          	addi	ra,ra,1010 # 8000a046 <lh_tdat4>
80002c5c:	ffe09703          	lh	a4,-2(ra)
80002c60:	000013b7          	lui	t2,0x1
80002c64:	ff038393          	addi	t2,t2,-16 # ff0 <_start-0x7ffff010>
80002c68:	00770463          	beq	a4,t2,80002c70 <test_1509>
80002c6c:	44d0506f          	j	800088b8 <fail>

80002c70 <test_1509>:
80002c70:	5e500193          	li	gp,1509
80002c74:	fffff7b7          	lui	a5,0xfffff
80002c78:	00f78793          	addi	a5,a5,15 # fffff00f <_end+0x7fff4f3f>
80002c7c:	00007097          	auipc	ra,0x7
80002c80:	3ca08093          	addi	ra,ra,970 # 8000a046 <lh_tdat4>
80002c84:	00009703          	lh	a4,0(ra)
80002c88:	fffff3b7          	lui	t2,0xfffff
80002c8c:	00f38393          	addi	t2,t2,15 # fffff00f <_end+0x7fff4f3f>
80002c90:	00770463          	beq	a4,t2,80002c98 <test_1510>
80002c94:	4250506f          	j	800088b8 <fail>

80002c98 <test_1510>:
80002c98:	5e600193          	li	gp,1510
80002c9c:	00007097          	auipc	ra,0x7
80002ca0:	3a408093          	addi	ra,ra,932 # 8000a040 <lh_tdat>
80002ca4:	fe008093          	addi	ra,ra,-32
80002ca8:	02009283          	lh	t0,32(ra)
80002cac:	0ff00393          	li	t2,255
80002cb0:	00728463          	beq	t0,t2,80002cb8 <test_1511>
80002cb4:	4050506f          	j	800088b8 <fail>

80002cb8 <test_1511>:
80002cb8:	5e700193          	li	gp,1511
80002cbc:	00007097          	auipc	ra,0x7
80002cc0:	38408093          	addi	ra,ra,900 # 8000a040 <lh_tdat>
80002cc4:	ffb08093          	addi	ra,ra,-5
80002cc8:	00709283          	lh	t0,7(ra)
80002ccc:	f0000393          	li	t2,-256
80002cd0:	00728463          	beq	t0,t2,80002cd8 <test_1512>
80002cd4:	3e50506f          	j	800088b8 <fail>

80002cd8 <test_1512>:
80002cd8:	5e800193          	li	gp,1512
80002cdc:	00000213          	li	tp,0
80002ce0:	00007097          	auipc	ra,0x7
80002ce4:	36208093          	addi	ra,ra,866 # 8000a042 <lh_tdat2>
80002ce8:	00209703          	lh	a4,2(ra)
80002cec:	00070313          	mv	t1,a4
80002cf0:	000013b7          	lui	t2,0x1
80002cf4:	ff038393          	addi	t2,t2,-16 # ff0 <_start-0x7ffff010>
80002cf8:	00730463          	beq	t1,t2,80002d00 <test_1512+0x28>
80002cfc:	3bd0506f          	j	800088b8 <fail>
80002d00:	00120213          	addi	tp,tp,1 # 1 <_start-0x7fffffff>
80002d04:	00200293          	li	t0,2
80002d08:	fc521ce3          	bne	tp,t0,80002ce0 <test_1512+0x8>

80002d0c <test_1513>:
80002d0c:	5e900193          	li	gp,1513
80002d10:	00000213          	li	tp,0
80002d14:	00007097          	auipc	ra,0x7
80002d18:	33008093          	addi	ra,ra,816 # 8000a044 <lh_tdat3>
80002d1c:	00209703          	lh	a4,2(ra)
80002d20:	00000013          	nop
80002d24:	00070313          	mv	t1,a4
80002d28:	fffff3b7          	lui	t2,0xfffff
80002d2c:	00f38393          	addi	t2,t2,15 # fffff00f <_end+0x7fff4f3f>
80002d30:	00730463          	beq	t1,t2,80002d38 <test_1513+0x2c>
80002d34:	3850506f          	j	800088b8 <fail>
80002d38:	00120213          	addi	tp,tp,1 # 1 <_start-0x7fffffff>
80002d3c:	00200293          	li	t0,2
80002d40:	fc521ae3          	bne	tp,t0,80002d14 <test_1513+0x8>

80002d44 <test_1514>:
80002d44:	5ea00193          	li	gp,1514
80002d48:	00000213          	li	tp,0
80002d4c:	00007097          	auipc	ra,0x7
80002d50:	2f408093          	addi	ra,ra,756 # 8000a040 <lh_tdat>
80002d54:	00209703          	lh	a4,2(ra)
80002d58:	00000013          	nop
80002d5c:	00000013          	nop
80002d60:	00070313          	mv	t1,a4
80002d64:	f0000393          	li	t2,-256
80002d68:	00730463          	beq	t1,t2,80002d70 <test_1514+0x2c>
80002d6c:	34d0506f          	j	800088b8 <fail>
80002d70:	00120213          	addi	tp,tp,1 # 1 <_start-0x7fffffff>
80002d74:	00200293          	li	t0,2
80002d78:	fc521ae3          	bne	tp,t0,80002d4c <test_1514+0x8>

80002d7c <test_1515>:
80002d7c:	5eb00193          	li	gp,1515
80002d80:	00000213          	li	tp,0
80002d84:	00007097          	auipc	ra,0x7
80002d88:	2be08093          	addi	ra,ra,702 # 8000a042 <lh_tdat2>
80002d8c:	00209703          	lh	a4,2(ra)
80002d90:	000013b7          	lui	t2,0x1
80002d94:	ff038393          	addi	t2,t2,-16 # ff0 <_start-0x7ffff010>
80002d98:	00770463          	beq	a4,t2,80002da0 <test_1515+0x24>
80002d9c:	31d0506f          	j	800088b8 <fail>
80002da0:	00120213          	addi	tp,tp,1 # 1 <_start-0x7fffffff>
80002da4:	00200293          	li	t0,2
80002da8:	fc521ee3          	bne	tp,t0,80002d84 <test_1515+0x8>

80002dac <test_1516>:
80002dac:	5ec00193          	li	gp,1516
80002db0:	00000213          	li	tp,0
80002db4:	00007097          	auipc	ra,0x7
80002db8:	29008093          	addi	ra,ra,656 # 8000a044 <lh_tdat3>
80002dbc:	00000013          	nop
80002dc0:	00209703          	lh	a4,2(ra)
80002dc4:	fffff3b7          	lui	t2,0xfffff
80002dc8:	00f38393          	addi	t2,t2,15 # fffff00f <_end+0x7fff4f3f>
80002dcc:	00770463          	beq	a4,t2,80002dd4 <test_1516+0x28>
80002dd0:	2e90506f          	j	800088b8 <fail>
80002dd4:	00120213          	addi	tp,tp,1 # 1 <_start-0x7fffffff>
80002dd8:	00200293          	li	t0,2
80002ddc:	fc521ce3          	bne	tp,t0,80002db4 <test_1516+0x8>

80002de0 <test_1517>:
80002de0:	5ed00193          	li	gp,1517
80002de4:	00000213          	li	tp,0
80002de8:	00007097          	auipc	ra,0x7
80002dec:	25808093          	addi	ra,ra,600 # 8000a040 <lh_tdat>
80002df0:	00000013          	nop
80002df4:	00000013          	nop
80002df8:	00209703          	lh	a4,2(ra)
80002dfc:	f0000393          	li	t2,-256
80002e00:	00770463          	beq	a4,t2,80002e08 <test_1517+0x28>
80002e04:	2b50506f          	j	800088b8 <fail>
80002e08:	00120213          	addi	tp,tp,1 # 1 <_start-0x7fffffff>
80002e0c:	00200293          	li	t0,2
80002e10:	fc521ce3          	bne	tp,t0,80002de8 <test_1517+0x8>

80002e14 <test_1518>:
80002e14:	5ee00193          	li	gp,1518
80002e18:	00007297          	auipc	t0,0x7
80002e1c:	22828293          	addi	t0,t0,552 # 8000a040 <lh_tdat>
80002e20:	00029103          	lh	sp,0(t0)
80002e24:	00200113          	li	sp,2
80002e28:	00200393          	li	t2,2
80002e2c:	00710463          	beq	sp,t2,80002e34 <test_1519>
80002e30:	2890506f          	j	800088b8 <fail>

80002e34 <test_1519>:
80002e34:	5ef00193          	li	gp,1519
80002e38:	00007297          	auipc	t0,0x7
80002e3c:	20828293          	addi	t0,t0,520 # 8000a040 <lh_tdat>
80002e40:	00029103          	lh	sp,0(t0)
80002e44:	00000013          	nop
80002e48:	00200113          	li	sp,2
80002e4c:	00200393          	li	t2,2
80002e50:	00710463          	beq	sp,t2,80002e58 <test_1602>
80002e54:	2650506f          	j	800088b8 <fail>

80002e58 <test_1602>:
80002e58:	64200193          	li	gp,1602
80002e5c:	00ff07b7          	lui	a5,0xff0
80002e60:	0ff78793          	addi	a5,a5,255 # ff00ff <_start-0x7f00ff01>
80002e64:	00007097          	auipc	ra,0x7
80002e68:	1ec08093          	addi	ra,ra,492 # 8000a050 <lw_tdat>
80002e6c:	0000a703          	lw	a4,0(ra)
80002e70:	00ff03b7          	lui	t2,0xff0
80002e74:	0ff38393          	addi	t2,t2,255 # ff00ff <_start-0x7f00ff01>
80002e78:	00770463          	beq	a4,t2,80002e80 <test_1603>
80002e7c:	23d0506f          	j	800088b8 <fail>

80002e80 <test_1603>:
80002e80:	64300193          	li	gp,1603
80002e84:	ff0107b7          	lui	a5,0xff010
80002e88:	f0078793          	addi	a5,a5,-256 # ff00ff00 <_end+0x7f005e30>
80002e8c:	00007097          	auipc	ra,0x7
80002e90:	1c408093          	addi	ra,ra,452 # 8000a050 <lw_tdat>
80002e94:	0040a703          	lw	a4,4(ra)
80002e98:	ff0103b7          	lui	t2,0xff010
80002e9c:	f0038393          	addi	t2,t2,-256 # ff00ff00 <_end+0x7f005e30>
80002ea0:	00770463          	beq	a4,t2,80002ea8 <test_1604>
80002ea4:	2150506f          	j	800088b8 <fail>

80002ea8 <test_1604>:
80002ea8:	64400193          	li	gp,1604
80002eac:	0ff017b7          	lui	a5,0xff01
80002eb0:	ff078793          	addi	a5,a5,-16 # ff00ff0 <_start-0x700ff010>
80002eb4:	00007097          	auipc	ra,0x7
80002eb8:	19c08093          	addi	ra,ra,412 # 8000a050 <lw_tdat>
80002ebc:	0080a703          	lw	a4,8(ra)
80002ec0:	0ff013b7          	lui	t2,0xff01
80002ec4:	ff038393          	addi	t2,t2,-16 # ff00ff0 <_start-0x700ff010>
80002ec8:	00770463          	beq	a4,t2,80002ed0 <test_1605>
80002ecc:	1ed0506f          	j	800088b8 <fail>

80002ed0 <test_1605>:
80002ed0:	64500193          	li	gp,1605
80002ed4:	f00ff7b7          	lui	a5,0xf00ff
80002ed8:	00f78793          	addi	a5,a5,15 # f00ff00f <_end+0x700f4f3f>
80002edc:	00007097          	auipc	ra,0x7
80002ee0:	17408093          	addi	ra,ra,372 # 8000a050 <lw_tdat>
80002ee4:	00c0a703          	lw	a4,12(ra)
80002ee8:	f00ff3b7          	lui	t2,0xf00ff
80002eec:	00f38393          	addi	t2,t2,15 # f00ff00f <_end+0x700f4f3f>
80002ef0:	00770463          	beq	a4,t2,80002ef8 <test_1606>
80002ef4:	1c50506f          	j	800088b8 <fail>

80002ef8 <test_1606>:
80002ef8:	64600193          	li	gp,1606
80002efc:	00ff07b7          	lui	a5,0xff0
80002f00:	0ff78793          	addi	a5,a5,255 # ff00ff <_start-0x7f00ff01>
80002f04:	00007097          	auipc	ra,0x7
80002f08:	15808093          	addi	ra,ra,344 # 8000a05c <lw_tdat4>
80002f0c:	ff40a703          	lw	a4,-12(ra)
80002f10:	00ff03b7          	lui	t2,0xff0
80002f14:	0ff38393          	addi	t2,t2,255 # ff00ff <_start-0x7f00ff01>
80002f18:	00770463          	beq	a4,t2,80002f20 <test_1607>
80002f1c:	19d0506f          	j	800088b8 <fail>

80002f20 <test_1607>:
80002f20:	64700193          	li	gp,1607
80002f24:	ff0107b7          	lui	a5,0xff010
80002f28:	f0078793          	addi	a5,a5,-256 # ff00ff00 <_end+0x7f005e30>
80002f2c:	00007097          	auipc	ra,0x7
80002f30:	13008093          	addi	ra,ra,304 # 8000a05c <lw_tdat4>
80002f34:	ff80a703          	lw	a4,-8(ra)
80002f38:	ff0103b7          	lui	t2,0xff010
80002f3c:	f0038393          	addi	t2,t2,-256 # ff00ff00 <_end+0x7f005e30>
80002f40:	00770463          	beq	a4,t2,80002f48 <test_1608>
80002f44:	1750506f          	j	800088b8 <fail>

80002f48 <test_1608>:
80002f48:	64800193          	li	gp,1608
80002f4c:	0ff017b7          	lui	a5,0xff01
80002f50:	ff078793          	addi	a5,a5,-16 # ff00ff0 <_start-0x700ff010>
80002f54:	00007097          	auipc	ra,0x7
80002f58:	10808093          	addi	ra,ra,264 # 8000a05c <lw_tdat4>
80002f5c:	ffc0a703          	lw	a4,-4(ra)
80002f60:	0ff013b7          	lui	t2,0xff01
80002f64:	ff038393          	addi	t2,t2,-16 # ff00ff0 <_start-0x700ff010>
80002f68:	00770463          	beq	a4,t2,80002f70 <test_1609>
80002f6c:	14d0506f          	j	800088b8 <fail>

80002f70 <test_1609>:
80002f70:	64900193          	li	gp,1609
80002f74:	f00ff7b7          	lui	a5,0xf00ff
80002f78:	00f78793          	addi	a5,a5,15 # f00ff00f <_end+0x700f4f3f>
80002f7c:	00007097          	auipc	ra,0x7
80002f80:	0e008093          	addi	ra,ra,224 # 8000a05c <lw_tdat4>
80002f84:	0000a703          	lw	a4,0(ra)
80002f88:	f00ff3b7          	lui	t2,0xf00ff
80002f8c:	00f38393          	addi	t2,t2,15 # f00ff00f <_end+0x700f4f3f>
80002f90:	00770463          	beq	a4,t2,80002f98 <test_1610>
80002f94:	1250506f          	j	800088b8 <fail>

80002f98 <test_1610>:
80002f98:	64a00193          	li	gp,1610
80002f9c:	00007097          	auipc	ra,0x7
80002fa0:	0b408093          	addi	ra,ra,180 # 8000a050 <lw_tdat>
80002fa4:	fe008093          	addi	ra,ra,-32
80002fa8:	0200a283          	lw	t0,32(ra)
80002fac:	00ff03b7          	lui	t2,0xff0
80002fb0:	0ff38393          	addi	t2,t2,255 # ff00ff <_start-0x7f00ff01>
80002fb4:	00728463          	beq	t0,t2,80002fbc <test_1611>
80002fb8:	1010506f          	j	800088b8 <fail>

80002fbc <test_1611>:
80002fbc:	64b00193          	li	gp,1611
80002fc0:	00007097          	auipc	ra,0x7
80002fc4:	09008093          	addi	ra,ra,144 # 8000a050 <lw_tdat>
80002fc8:	ffd08093          	addi	ra,ra,-3
80002fcc:	0070a283          	lw	t0,7(ra)
80002fd0:	ff0103b7          	lui	t2,0xff010
80002fd4:	f0038393          	addi	t2,t2,-256 # ff00ff00 <_end+0x7f005e30>
80002fd8:	00728463          	beq	t0,t2,80002fe0 <test_1612>
80002fdc:	0dd0506f          	j	800088b8 <fail>

80002fe0 <test_1612>:
80002fe0:	64c00193          	li	gp,1612
80002fe4:	00000213          	li	tp,0
80002fe8:	00007097          	auipc	ra,0x7
80002fec:	06c08093          	addi	ra,ra,108 # 8000a054 <lw_tdat2>
80002ff0:	0040a703          	lw	a4,4(ra)
80002ff4:	00070313          	mv	t1,a4
80002ff8:	0ff013b7          	lui	t2,0xff01
80002ffc:	ff038393          	addi	t2,t2,-16 # ff00ff0 <_start-0x700ff010>
80003000:	00730463          	beq	t1,t2,80003008 <test_1612+0x28>
80003004:	0b50506f          	j	800088b8 <fail>
80003008:	00120213          	addi	tp,tp,1 # 1 <_start-0x7fffffff>
8000300c:	00200293          	li	t0,2
80003010:	fc521ce3          	bne	tp,t0,80002fe8 <test_1612+0x8>

80003014 <test_1613>:
80003014:	64d00193          	li	gp,1613
80003018:	00000213          	li	tp,0
8000301c:	00007097          	auipc	ra,0x7
80003020:	03c08093          	addi	ra,ra,60 # 8000a058 <lw_tdat3>
80003024:	0040a703          	lw	a4,4(ra)
80003028:	00000013          	nop
8000302c:	00070313          	mv	t1,a4
80003030:	f00ff3b7          	lui	t2,0xf00ff
80003034:	00f38393          	addi	t2,t2,15 # f00ff00f <_end+0x700f4f3f>
80003038:	00730463          	beq	t1,t2,80003040 <test_1613+0x2c>
8000303c:	07d0506f          	j	800088b8 <fail>
80003040:	00120213          	addi	tp,tp,1 # 1 <_start-0x7fffffff>
80003044:	00200293          	li	t0,2
80003048:	fc521ae3          	bne	tp,t0,8000301c <test_1613+0x8>

8000304c <test_1614>:
8000304c:	64e00193          	li	gp,1614
80003050:	00000213          	li	tp,0
80003054:	00007097          	auipc	ra,0x7
80003058:	ffc08093          	addi	ra,ra,-4 # 8000a050 <lw_tdat>
8000305c:	0040a703          	lw	a4,4(ra)
80003060:	00000013          	nop
80003064:	00000013          	nop
80003068:	00070313          	mv	t1,a4
8000306c:	ff0103b7          	lui	t2,0xff010
80003070:	f0038393          	addi	t2,t2,-256 # ff00ff00 <_end+0x7f005e30>
80003074:	00730463          	beq	t1,t2,8000307c <test_1614+0x30>
80003078:	0410506f          	j	800088b8 <fail>
8000307c:	00120213          	addi	tp,tp,1 # 1 <_start-0x7fffffff>
80003080:	00200293          	li	t0,2
80003084:	fc5218e3          	bne	tp,t0,80003054 <test_1614+0x8>

80003088 <test_1615>:
80003088:	64f00193          	li	gp,1615
8000308c:	00000213          	li	tp,0
80003090:	00007097          	auipc	ra,0x7
80003094:	fc408093          	addi	ra,ra,-60 # 8000a054 <lw_tdat2>
80003098:	0040a703          	lw	a4,4(ra)
8000309c:	0ff013b7          	lui	t2,0xff01
800030a0:	ff038393          	addi	t2,t2,-16 # ff00ff0 <_start-0x700ff010>
800030a4:	00770463          	beq	a4,t2,800030ac <test_1615+0x24>
800030a8:	0110506f          	j	800088b8 <fail>
800030ac:	00120213          	addi	tp,tp,1 # 1 <_start-0x7fffffff>
800030b0:	00200293          	li	t0,2
800030b4:	fc521ee3          	bne	tp,t0,80003090 <test_1615+0x8>

800030b8 <test_1616>:
800030b8:	65000193          	li	gp,1616
800030bc:	00000213          	li	tp,0
800030c0:	00007097          	auipc	ra,0x7
800030c4:	f9808093          	addi	ra,ra,-104 # 8000a058 <lw_tdat3>
800030c8:	00000013          	nop
800030cc:	0040a703          	lw	a4,4(ra)
800030d0:	f00ff3b7          	lui	t2,0xf00ff
800030d4:	00f38393          	addi	t2,t2,15 # f00ff00f <_end+0x700f4f3f>
800030d8:	00770463          	beq	a4,t2,800030e0 <test_1616+0x28>
800030dc:	7dc0506f          	j	800088b8 <fail>
800030e0:	00120213          	addi	tp,tp,1 # 1 <_start-0x7fffffff>
800030e4:	00200293          	li	t0,2
800030e8:	fc521ce3          	bne	tp,t0,800030c0 <test_1616+0x8>

800030ec <test_1617>:
800030ec:	65100193          	li	gp,1617
800030f0:	00000213          	li	tp,0
800030f4:	00007097          	auipc	ra,0x7
800030f8:	f5c08093          	addi	ra,ra,-164 # 8000a050 <lw_tdat>
800030fc:	00000013          	nop
80003100:	00000013          	nop
80003104:	0040a703          	lw	a4,4(ra)
80003108:	ff0103b7          	lui	t2,0xff010
8000310c:	f0038393          	addi	t2,t2,-256 # ff00ff00 <_end+0x7f005e30>
80003110:	00770463          	beq	a4,t2,80003118 <test_1617+0x2c>
80003114:	7a40506f          	j	800088b8 <fail>
80003118:	00120213          	addi	tp,tp,1 # 1 <_start-0x7fffffff>
8000311c:	00200293          	li	t0,2
80003120:	fc521ae3          	bne	tp,t0,800030f4 <test_1617+0x8>

80003124 <test_1618>:
80003124:	65200193          	li	gp,1618
80003128:	00007297          	auipc	t0,0x7
8000312c:	f2828293          	addi	t0,t0,-216 # 8000a050 <lw_tdat>
80003130:	0002a103          	lw	sp,0(t0)
80003134:	00200113          	li	sp,2
80003138:	00200393          	li	t2,2
8000313c:	00710463          	beq	sp,t2,80003144 <test_1619>
80003140:	7780506f          	j	800088b8 <fail>

80003144 <test_1619>:
80003144:	65300193          	li	gp,1619
80003148:	00007297          	auipc	t0,0x7
8000314c:	f0828293          	addi	t0,t0,-248 # 8000a050 <lw_tdat>
80003150:	0002a103          	lw	sp,0(t0)
80003154:	00000013          	nop
80003158:	00200113          	li	sp,2
8000315c:	00200393          	li	t2,2
80003160:	00710463          	beq	sp,t2,80003168 <test_1702>
80003164:	7540506f          	j	800088b8 <fail>

80003168 <test_1702>:
80003168:	6a600193          	li	gp,1702
8000316c:	ff0100b7          	lui	ra,0xff010
80003170:	f0008093          	addi	ra,ra,-256 # ff00ff00 <_end+0x7f005e30>
80003174:	0f0f1137          	lui	sp,0xf0f1
80003178:	f0f10113          	addi	sp,sp,-241 # f0f0f0f <_start-0x70f0f0f1>
8000317c:	0020e733          	or	a4,ra,sp
80003180:	ff1003b7          	lui	t2,0xff100
80003184:	f0f38393          	addi	t2,t2,-241 # ff0fff0f <_end+0x7f0f5e3f>
80003188:	00770463          	beq	a4,t2,80003190 <test_1703>
8000318c:	72c0506f          	j	800088b8 <fail>

80003190 <test_1703>:
80003190:	6a700193          	li	gp,1703
80003194:	0ff010b7          	lui	ra,0xff01
80003198:	ff008093          	addi	ra,ra,-16 # ff00ff0 <_start-0x700ff010>
8000319c:	f0f0f137          	lui	sp,0xf0f0f
800031a0:	0f010113          	addi	sp,sp,240 # f0f0f0f0 <_end+0x70f05020>
800031a4:	0020e733          	or	a4,ra,sp
800031a8:	fff103b7          	lui	t2,0xfff10
800031ac:	ff038393          	addi	t2,t2,-16 # fff0fff0 <_end+0x7ff05f20>
800031b0:	00770463          	beq	a4,t2,800031b8 <test_1704>
800031b4:	7040506f          	j	800088b8 <fail>

800031b8 <test_1704>:
800031b8:	6a800193          	li	gp,1704
800031bc:	00ff00b7          	lui	ra,0xff0
800031c0:	0ff08093          	addi	ra,ra,255 # ff00ff <_start-0x7f00ff01>
800031c4:	0f0f1137          	lui	sp,0xf0f1
800031c8:	f0f10113          	addi	sp,sp,-241 # f0f0f0f <_start-0x70f0f0f1>
800031cc:	0020e733          	or	a4,ra,sp
800031d0:	0fff13b7          	lui	t2,0xfff1
800031d4:	fff38393          	addi	t2,t2,-1 # fff0fff <_start-0x7000f001>
800031d8:	00770463          	beq	a4,t2,800031e0 <test_1705>
800031dc:	6dc0506f          	j	800088b8 <fail>

800031e0 <test_1705>:
800031e0:	6a900193          	li	gp,1705
800031e4:	f00ff0b7          	lui	ra,0xf00ff
800031e8:	00f08093          	addi	ra,ra,15 # f00ff00f <_end+0x700f4f3f>
800031ec:	f0f0f137          	lui	sp,0xf0f0f
800031f0:	0f010113          	addi	sp,sp,240 # f0f0f0f0 <_end+0x70f05020>
800031f4:	0020e733          	or	a4,ra,sp
800031f8:	f0fff3b7          	lui	t2,0xf0fff
800031fc:	0ff38393          	addi	t2,t2,255 # f0fff0ff <_end+0x70ff502f>
80003200:	00770463          	beq	a4,t2,80003208 <test_1706>
80003204:	6b40506f          	j	800088b8 <fail>

80003208 <test_1706>:
80003208:	6aa00193          	li	gp,1706
8000320c:	ff0100b7          	lui	ra,0xff010
80003210:	f0008093          	addi	ra,ra,-256 # ff00ff00 <_end+0x7f005e30>
80003214:	0f0f1137          	lui	sp,0xf0f1
80003218:	f0f10113          	addi	sp,sp,-241 # f0f0f0f <_start-0x70f0f0f1>
8000321c:	0020e0b3          	or	ra,ra,sp
80003220:	ff1003b7          	lui	t2,0xff100
80003224:	f0f38393          	addi	t2,t2,-241 # ff0fff0f <_end+0x7f0f5e3f>
80003228:	00708463          	beq	ra,t2,80003230 <test_1707>
8000322c:	68c0506f          	j	800088b8 <fail>

80003230 <test_1707>:
80003230:	6ab00193          	li	gp,1707
80003234:	ff0100b7          	lui	ra,0xff010
80003238:	f0008093          	addi	ra,ra,-256 # ff00ff00 <_end+0x7f005e30>
8000323c:	0f0f1137          	lui	sp,0xf0f1
80003240:	f0f10113          	addi	sp,sp,-241 # f0f0f0f <_start-0x70f0f0f1>
80003244:	0020e133          	or	sp,ra,sp
80003248:	ff1003b7          	lui	t2,0xff100
8000324c:	f0f38393          	addi	t2,t2,-241 # ff0fff0f <_end+0x7f0f5e3f>
80003250:	00710463          	beq	sp,t2,80003258 <test_1708>
80003254:	6640506f          	j	800088b8 <fail>

80003258 <test_1708>:
80003258:	6ac00193          	li	gp,1708
8000325c:	ff0100b7          	lui	ra,0xff010
80003260:	f0008093          	addi	ra,ra,-256 # ff00ff00 <_end+0x7f005e30>
80003264:	0010e0b3          	or	ra,ra,ra
80003268:	ff0103b7          	lui	t2,0xff010
8000326c:	f0038393          	addi	t2,t2,-256 # ff00ff00 <_end+0x7f005e30>
80003270:	00708463          	beq	ra,t2,80003278 <test_1709>
80003274:	6440506f          	j	800088b8 <fail>

80003278 <test_1709>:
80003278:	6ad00193          	li	gp,1709
8000327c:	00000213          	li	tp,0
80003280:	ff0100b7          	lui	ra,0xff010
80003284:	f0008093          	addi	ra,ra,-256 # ff00ff00 <_end+0x7f005e30>
80003288:	0f0f1137          	lui	sp,0xf0f1
8000328c:	f0f10113          	addi	sp,sp,-241 # f0f0f0f <_start-0x70f0f0f1>
80003290:	0020e733          	or	a4,ra,sp
80003294:	00070313          	mv	t1,a4
80003298:	00120213          	addi	tp,tp,1 # 1 <_start-0x7fffffff>
8000329c:	00200293          	li	t0,2
800032a0:	fe5210e3          	bne	tp,t0,80003280 <test_1709+0x8>
800032a4:	ff1003b7          	lui	t2,0xff100
800032a8:	f0f38393          	addi	t2,t2,-241 # ff0fff0f <_end+0x7f0f5e3f>
800032ac:	00730463          	beq	t1,t2,800032b4 <test_1710>
800032b0:	6080506f          	j	800088b8 <fail>

800032b4 <test_1710>:
800032b4:	6ae00193          	li	gp,1710
800032b8:	00000213          	li	tp,0
800032bc:	0ff010b7          	lui	ra,0xff01
800032c0:	ff008093          	addi	ra,ra,-16 # ff00ff0 <_start-0x700ff010>
800032c4:	f0f0f137          	lui	sp,0xf0f0f
800032c8:	0f010113          	addi	sp,sp,240 # f0f0f0f0 <_end+0x70f05020>
800032cc:	0020e733          	or	a4,ra,sp
800032d0:	00000013          	nop
800032d4:	00070313          	mv	t1,a4
800032d8:	00120213          	addi	tp,tp,1 # 1 <_start-0x7fffffff>
800032dc:	00200293          	li	t0,2
800032e0:	fc521ee3          	bne	tp,t0,800032bc <test_1710+0x8>
800032e4:	fff103b7          	lui	t2,0xfff10
800032e8:	ff038393          	addi	t2,t2,-16 # fff0fff0 <_end+0x7ff05f20>
800032ec:	00730463          	beq	t1,t2,800032f4 <test_1711>
800032f0:	5c80506f          	j	800088b8 <fail>

800032f4 <test_1711>:
800032f4:	6af00193          	li	gp,1711
800032f8:	00000213          	li	tp,0
800032fc:	00ff00b7          	lui	ra,0xff0
80003300:	0ff08093          	addi	ra,ra,255 # ff00ff <_start-0x7f00ff01>
80003304:	0f0f1137          	lui	sp,0xf0f1
80003308:	f0f10113          	addi	sp,sp,-241 # f0f0f0f <_start-0x70f0f0f1>
8000330c:	0020e733          	or	a4,ra,sp
80003310:	00000013          	nop
80003314:	00000013          	nop
80003318:	00070313          	mv	t1,a4
8000331c:	00120213          	addi	tp,tp,1 # 1 <_start-0x7fffffff>
80003320:	00200293          	li	t0,2
80003324:	fc521ce3          	bne	tp,t0,800032fc <test_1711+0x8>
80003328:	0fff13b7          	lui	t2,0xfff1
8000332c:	fff38393          	addi	t2,t2,-1 # fff0fff <_start-0x7000f001>
80003330:	00730463          	beq	t1,t2,80003338 <test_1712>
80003334:	5840506f          	j	800088b8 <fail>

80003338 <test_1712>:
80003338:	6b000193          	li	gp,1712
8000333c:	00000213          	li	tp,0
80003340:	ff0100b7          	lui	ra,0xff010
80003344:	f0008093          	addi	ra,ra,-256 # ff00ff00 <_end+0x7f005e30>
80003348:	0f0f1137          	lui	sp,0xf0f1
8000334c:	f0f10113          	addi	sp,sp,-241 # f0f0f0f <_start-0x70f0f0f1>
80003350:	0020e733          	or	a4,ra,sp
80003354:	00120213          	addi	tp,tp,1 # 1 <_start-0x7fffffff>
80003358:	00200293          	li	t0,2
8000335c:	fe5212e3          	bne	tp,t0,80003340 <test_1712+0x8>
80003360:	ff1003b7          	lui	t2,0xff100
80003364:	f0f38393          	addi	t2,t2,-241 # ff0fff0f <_end+0x7f0f5e3f>
80003368:	00770463          	beq	a4,t2,80003370 <test_1713>
8000336c:	54c0506f          	j	800088b8 <fail>

80003370 <test_1713>:
80003370:	6b100193          	li	gp,1713
80003374:	00000213          	li	tp,0
80003378:	0ff010b7          	lui	ra,0xff01
8000337c:	ff008093          	addi	ra,ra,-16 # ff00ff0 <_start-0x700ff010>
80003380:	f0f0f137          	lui	sp,0xf0f0f
80003384:	0f010113          	addi	sp,sp,240 # f0f0f0f0 <_end+0x70f05020>
80003388:	00000013          	nop
8000338c:	0020e733          	or	a4,ra,sp
80003390:	00120213          	addi	tp,tp,1 # 1 <_start-0x7fffffff>
80003394:	00200293          	li	t0,2
80003398:	fe5210e3          	bne	tp,t0,80003378 <test_1713+0x8>
8000339c:	fff103b7          	lui	t2,0xfff10
800033a0:	ff038393          	addi	t2,t2,-16 # fff0fff0 <_end+0x7ff05f20>
800033a4:	00770463          	beq	a4,t2,800033ac <test_1714>
800033a8:	5100506f          	j	800088b8 <fail>

800033ac <test_1714>:
800033ac:	6b200193          	li	gp,1714
800033b0:	00000213          	li	tp,0
800033b4:	00ff00b7          	lui	ra,0xff0
800033b8:	0ff08093          	addi	ra,ra,255 # ff00ff <_start-0x7f00ff01>
800033bc:	0f0f1137          	lui	sp,0xf0f1
800033c0:	f0f10113          	addi	sp,sp,-241 # f0f0f0f <_start-0x70f0f0f1>
800033c4:	00000013          	nop
800033c8:	00000013          	nop
800033cc:	0020e733          	or	a4,ra,sp
800033d0:	00120213          	addi	tp,tp,1 # 1 <_start-0x7fffffff>
800033d4:	00200293          	li	t0,2
800033d8:	fc521ee3          	bne	tp,t0,800033b4 <test_1714+0x8>
800033dc:	0fff13b7          	lui	t2,0xfff1
800033e0:	fff38393          	addi	t2,t2,-1 # fff0fff <_start-0x7000f001>
800033e4:	00770463          	beq	a4,t2,800033ec <test_1715>
800033e8:	4d00506f          	j	800088b8 <fail>

800033ec <test_1715>:
800033ec:	6b300193          	li	gp,1715
800033f0:	00000213          	li	tp,0
800033f4:	ff0100b7          	lui	ra,0xff010
800033f8:	f0008093          	addi	ra,ra,-256 # ff00ff00 <_end+0x7f005e30>
800033fc:	00000013          	nop
80003400:	0f0f1137          	lui	sp,0xf0f1
80003404:	f0f10113          	addi	sp,sp,-241 # f0f0f0f <_start-0x70f0f0f1>
80003408:	0020e733          	or	a4,ra,sp
8000340c:	00120213          	addi	tp,tp,1 # 1 <_start-0x7fffffff>
80003410:	00200293          	li	t0,2
80003414:	fe5210e3          	bne	tp,t0,800033f4 <test_1715+0x8>
80003418:	ff1003b7          	lui	t2,0xff100
8000341c:	f0f38393          	addi	t2,t2,-241 # ff0fff0f <_end+0x7f0f5e3f>
80003420:	00770463          	beq	a4,t2,80003428 <test_1716>
80003424:	4940506f          	j	800088b8 <fail>

80003428 <test_1716>:
80003428:	6b400193          	li	gp,1716
8000342c:	00000213          	li	tp,0
80003430:	0ff010b7          	lui	ra,0xff01
80003434:	ff008093          	addi	ra,ra,-16 # ff00ff0 <_start-0x700ff010>
80003438:	00000013          	nop
8000343c:	f0f0f137          	lui	sp,0xf0f0f
80003440:	0f010113          	addi	sp,sp,240 # f0f0f0f0 <_end+0x70f05020>
80003444:	00000013          	nop
80003448:	0020e733          	or	a4,ra,sp
8000344c:	00120213          	addi	tp,tp,1 # 1 <_start-0x7fffffff>
80003450:	00200293          	li	t0,2
80003454:	fc521ee3          	bne	tp,t0,80003430 <test_1716+0x8>
80003458:	fff103b7          	lui	t2,0xfff10
8000345c:	ff038393          	addi	t2,t2,-16 # fff0fff0 <_end+0x7ff05f20>
80003460:	00770463          	beq	a4,t2,80003468 <test_1717>
80003464:	4540506f          	j	800088b8 <fail>

80003468 <test_1717>:
80003468:	6b500193          	li	gp,1717
8000346c:	00000213          	li	tp,0
80003470:	00ff00b7          	lui	ra,0xff0
80003474:	0ff08093          	addi	ra,ra,255 # ff00ff <_start-0x7f00ff01>
80003478:	00000013          	nop
8000347c:	00000013          	nop
80003480:	0f0f1137          	lui	sp,0xf0f1
80003484:	f0f10113          	addi	sp,sp,-241 # f0f0f0f <_start-0x70f0f0f1>
80003488:	0020e733          	or	a4,ra,sp
8000348c:	00120213          	addi	tp,tp,1 # 1 <_start-0x7fffffff>
80003490:	00200293          	li	t0,2
80003494:	fc521ee3          	bne	tp,t0,80003470 <test_1717+0x8>
80003498:	0fff13b7          	lui	t2,0xfff1
8000349c:	fff38393          	addi	t2,t2,-1 # fff0fff <_start-0x7000f001>
800034a0:	00770463          	beq	a4,t2,800034a8 <test_1718>
800034a4:	4140506f          	j	800088b8 <fail>

800034a8 <test_1718>:
800034a8:	6b600193          	li	gp,1718
800034ac:	00000213          	li	tp,0
800034b0:	0f0f1137          	lui	sp,0xf0f1
800034b4:	f0f10113          	addi	sp,sp,-241 # f0f0f0f <_start-0x70f0f0f1>
800034b8:	ff0100b7          	lui	ra,0xff010
800034bc:	f0008093          	addi	ra,ra,-256 # ff00ff00 <_end+0x7f005e30>
800034c0:	0020e733          	or	a4,ra,sp
800034c4:	00120213          	addi	tp,tp,1 # 1 <_start-0x7fffffff>
800034c8:	00200293          	li	t0,2
800034cc:	fe5212e3          	bne	tp,t0,800034b0 <test_1718+0x8>
800034d0:	ff1003b7          	lui	t2,0xff100
800034d4:	f0f38393          	addi	t2,t2,-241 # ff0fff0f <_end+0x7f0f5e3f>
800034d8:	00770463          	beq	a4,t2,800034e0 <test_1719>
800034dc:	3dc0506f          	j	800088b8 <fail>

800034e0 <test_1719>:
800034e0:	6b700193          	li	gp,1719
800034e4:	00000213          	li	tp,0
800034e8:	f0f0f137          	lui	sp,0xf0f0f
800034ec:	0f010113          	addi	sp,sp,240 # f0f0f0f0 <_end+0x70f05020>
800034f0:	0ff010b7          	lui	ra,0xff01
800034f4:	ff008093          	addi	ra,ra,-16 # ff00ff0 <_start-0x700ff010>
800034f8:	00000013          	nop
800034fc:	0020e733          	or	a4,ra,sp
80003500:	00120213          	addi	tp,tp,1 # 1 <_start-0x7fffffff>
80003504:	00200293          	li	t0,2
80003508:	fe5210e3          	bne	tp,t0,800034e8 <test_1719+0x8>
8000350c:	fff103b7          	lui	t2,0xfff10
80003510:	ff038393          	addi	t2,t2,-16 # fff0fff0 <_end+0x7ff05f20>
80003514:	00770463          	beq	a4,t2,8000351c <test_1720>
80003518:	3a00506f          	j	800088b8 <fail>

8000351c <test_1720>:
8000351c:	6b800193          	li	gp,1720
80003520:	00000213          	li	tp,0
80003524:	0f0f1137          	lui	sp,0xf0f1
80003528:	f0f10113          	addi	sp,sp,-241 # f0f0f0f <_start-0x70f0f0f1>
8000352c:	00ff00b7          	lui	ra,0xff0
80003530:	0ff08093          	addi	ra,ra,255 # ff00ff <_start-0x7f00ff01>
80003534:	00000013          	nop
80003538:	00000013          	nop
8000353c:	0020e733          	or	a4,ra,sp
80003540:	00120213          	addi	tp,tp,1 # 1 <_start-0x7fffffff>
80003544:	00200293          	li	t0,2
80003548:	fc521ee3          	bne	tp,t0,80003524 <test_1720+0x8>
8000354c:	0fff13b7          	lui	t2,0xfff1
80003550:	fff38393          	addi	t2,t2,-1 # fff0fff <_start-0x7000f001>
80003554:	00770463          	beq	a4,t2,8000355c <test_1721>
80003558:	3600506f          	j	800088b8 <fail>

8000355c <test_1721>:
8000355c:	6b900193          	li	gp,1721
80003560:	00000213          	li	tp,0
80003564:	0f0f1137          	lui	sp,0xf0f1
80003568:	f0f10113          	addi	sp,sp,-241 # f0f0f0f <_start-0x70f0f0f1>
8000356c:	00000013          	nop
80003570:	ff0100b7          	lui	ra,0xff010
80003574:	f0008093          	addi	ra,ra,-256 # ff00ff00 <_end+0x7f005e30>
80003578:	0020e733          	or	a4,ra,sp
8000357c:	00120213          	addi	tp,tp,1 # 1 <_start-0x7fffffff>
80003580:	00200293          	li	t0,2
80003584:	fe5210e3          	bne	tp,t0,80003564 <test_1721+0x8>
80003588:	ff1003b7          	lui	t2,0xff100
8000358c:	f0f38393          	addi	t2,t2,-241 # ff0fff0f <_end+0x7f0f5e3f>
80003590:	00770463          	beq	a4,t2,80003598 <test_1722>
80003594:	3240506f          	j	800088b8 <fail>

80003598 <test_1722>:
80003598:	6ba00193          	li	gp,1722
8000359c:	00000213          	li	tp,0
800035a0:	f0f0f137          	lui	sp,0xf0f0f
800035a4:	0f010113          	addi	sp,sp,240 # f0f0f0f0 <_end+0x70f05020>
800035a8:	00000013          	nop
800035ac:	0ff010b7          	lui	ra,0xff01
800035b0:	ff008093          	addi	ra,ra,-16 # ff00ff0 <_start-0x700ff010>
800035b4:	00000013          	nop
800035b8:	0020e733          	or	a4,ra,sp
800035bc:	00120213          	addi	tp,tp,1 # 1 <_start-0x7fffffff>
800035c0:	00200293          	li	t0,2
800035c4:	fc521ee3          	bne	tp,t0,800035a0 <test_1722+0x8>
800035c8:	fff103b7          	lui	t2,0xfff10
800035cc:	ff038393          	addi	t2,t2,-16 # fff0fff0 <_end+0x7ff05f20>
800035d0:	00770463          	beq	a4,t2,800035d8 <test_1723>
800035d4:	2e40506f          	j	800088b8 <fail>

800035d8 <test_1723>:
800035d8:	6bb00193          	li	gp,1723
800035dc:	00000213          	li	tp,0
800035e0:	0f0f1137          	lui	sp,0xf0f1
800035e4:	f0f10113          	addi	sp,sp,-241 # f0f0f0f <_start-0x70f0f0f1>
800035e8:	00000013          	nop
800035ec:	00000013          	nop
800035f0:	00ff00b7          	lui	ra,0xff0
800035f4:	0ff08093          	addi	ra,ra,255 # ff00ff <_start-0x7f00ff01>
800035f8:	0020e733          	or	a4,ra,sp
800035fc:	00120213          	addi	tp,tp,1 # 1 <_start-0x7fffffff>
80003600:	00200293          	li	t0,2
80003604:	fc521ee3          	bne	tp,t0,800035e0 <test_1723+0x8>
80003608:	0fff13b7          	lui	t2,0xfff1
8000360c:	fff38393          	addi	t2,t2,-1 # fff0fff <_start-0x7000f001>
80003610:	00770463          	beq	a4,t2,80003618 <test_1724>
80003614:	2a40506f          	j	800088b8 <fail>

80003618 <test_1724>:
80003618:	6bc00193          	li	gp,1724
8000361c:	ff0100b7          	lui	ra,0xff010
80003620:	f0008093          	addi	ra,ra,-256 # ff00ff00 <_end+0x7f005e30>
80003624:	00106133          	or	sp,zero,ra
80003628:	ff0103b7          	lui	t2,0xff010
8000362c:	f0038393          	addi	t2,t2,-256 # ff00ff00 <_end+0x7f005e30>
80003630:	00710463          	beq	sp,t2,80003638 <test_1725>
80003634:	2840506f          	j	800088b8 <fail>

80003638 <test_1725>:
80003638:	6bd00193          	li	gp,1725
8000363c:	00ff00b7          	lui	ra,0xff0
80003640:	0ff08093          	addi	ra,ra,255 # ff00ff <_start-0x7f00ff01>
80003644:	0000e133          	or	sp,ra,zero
80003648:	00ff03b7          	lui	t2,0xff0
8000364c:	0ff38393          	addi	t2,t2,255 # ff00ff <_start-0x7f00ff01>
80003650:	00710463          	beq	sp,t2,80003658 <test_1726>
80003654:	2640506f          	j	800088b8 <fail>

80003658 <test_1726>:
80003658:	6be00193          	li	gp,1726
8000365c:	000060b3          	or	ra,zero,zero
80003660:	00000393          	li	t2,0
80003664:	00708463          	beq	ra,t2,8000366c <test_1727>
80003668:	2500506f          	j	800088b8 <fail>

8000366c <test_1727>:
8000366c:	6bf00193          	li	gp,1727
80003670:	111110b7          	lui	ra,0x11111
80003674:	11108093          	addi	ra,ra,273 # 11111111 <_start-0x6eeeeeef>
80003678:	22222137          	lui	sp,0x22222
8000367c:	22210113          	addi	sp,sp,546 # 22222222 <_start-0x5dddddde>
80003680:	0020e033          	or	zero,ra,sp
80003684:	00000393          	li	t2,0
80003688:	00700463          	beq	zero,t2,80003690 <test_1802>
8000368c:	22c0506f          	j	800088b8 <fail>

80003690 <test_1802>:
80003690:	70a00193          	li	gp,1802
80003694:	ff0100b7          	lui	ra,0xff010
80003698:	f0008093          	addi	ra,ra,-256 # ff00ff00 <_end+0x7f005e30>
8000369c:	f0f0e713          	ori	a4,ra,-241
800036a0:	f0f00393          	li	t2,-241
800036a4:	00770463          	beq	a4,t2,800036ac <test_1803>
800036a8:	2100506f          	j	800088b8 <fail>

800036ac <test_1803>:
800036ac:	70b00193          	li	gp,1803
800036b0:	0ff010b7          	lui	ra,0xff01
800036b4:	ff008093          	addi	ra,ra,-16 # ff00ff0 <_start-0x700ff010>
800036b8:	0f00e713          	ori	a4,ra,240
800036bc:	0ff013b7          	lui	t2,0xff01
800036c0:	ff038393          	addi	t2,t2,-16 # ff00ff0 <_start-0x700ff010>
800036c4:	00770463          	beq	a4,t2,800036cc <test_1804>
800036c8:	1f00506f          	j	800088b8 <fail>

800036cc <test_1804>:
800036cc:	70c00193          	li	gp,1804
800036d0:	00ff00b7          	lui	ra,0xff0
800036d4:	0ff08093          	addi	ra,ra,255 # ff00ff <_start-0x7f00ff01>
800036d8:	70f0e713          	ori	a4,ra,1807
800036dc:	00ff03b7          	lui	t2,0xff0
800036e0:	7ff38393          	addi	t2,t2,2047 # ff07ff <_start-0x7f00f801>
800036e4:	00770463          	beq	a4,t2,800036ec <test_1805>
800036e8:	1d00506f          	j	800088b8 <fail>

800036ec <test_1805>:
800036ec:	70d00193          	li	gp,1805
800036f0:	f00ff0b7          	lui	ra,0xf00ff
800036f4:	00f08093          	addi	ra,ra,15 # f00ff00f <_end+0x700f4f3f>
800036f8:	0f00e713          	ori	a4,ra,240
800036fc:	f00ff3b7          	lui	t2,0xf00ff
80003700:	0ff38393          	addi	t2,t2,255 # f00ff0ff <_end+0x700f502f>
80003704:	00770463          	beq	a4,t2,8000370c <test_1806>
80003708:	1b00506f          	j	800088b8 <fail>

8000370c <test_1806>:
8000370c:	70e00193          	li	gp,1806
80003710:	ff0100b7          	lui	ra,0xff010
80003714:	f0008093          	addi	ra,ra,-256 # ff00ff00 <_end+0x7f005e30>
80003718:	0f00e093          	ori	ra,ra,240
8000371c:	ff0103b7          	lui	t2,0xff010
80003720:	ff038393          	addi	t2,t2,-16 # ff00fff0 <_end+0x7f005f20>
80003724:	00708463          	beq	ra,t2,8000372c <test_1807>
80003728:	1900506f          	j	800088b8 <fail>

8000372c <test_1807>:
8000372c:	70f00193          	li	gp,1807
80003730:	00000213          	li	tp,0
80003734:	0ff010b7          	lui	ra,0xff01
80003738:	ff008093          	addi	ra,ra,-16 # ff00ff0 <_start-0x700ff010>
8000373c:	0f00e713          	ori	a4,ra,240
80003740:	00070313          	mv	t1,a4
80003744:	00120213          	addi	tp,tp,1 # 1 <_start-0x7fffffff>
80003748:	00200293          	li	t0,2
8000374c:	fe5214e3          	bne	tp,t0,80003734 <test_1807+0x8>
80003750:	0ff013b7          	lui	t2,0xff01
80003754:	ff038393          	addi	t2,t2,-16 # ff00ff0 <_start-0x700ff010>
80003758:	00730463          	beq	t1,t2,80003760 <test_1808>
8000375c:	15c0506f          	j	800088b8 <fail>

80003760 <test_1808>:
80003760:	71000193          	li	gp,1808
80003764:	00000213          	li	tp,0
80003768:	00ff00b7          	lui	ra,0xff0
8000376c:	0ff08093          	addi	ra,ra,255 # ff00ff <_start-0x7f00ff01>
80003770:	70f0e713          	ori	a4,ra,1807
80003774:	00000013          	nop
80003778:	00070313          	mv	t1,a4
8000377c:	00120213          	addi	tp,tp,1 # 1 <_start-0x7fffffff>
80003780:	00200293          	li	t0,2
80003784:	fe5212e3          	bne	tp,t0,80003768 <test_1808+0x8>
80003788:	00ff03b7          	lui	t2,0xff0
8000378c:	7ff38393          	addi	t2,t2,2047 # ff07ff <_start-0x7f00f801>
80003790:	00730463          	beq	t1,t2,80003798 <test_1809>
80003794:	1240506f          	j	800088b8 <fail>

80003798 <test_1809>:
80003798:	71100193          	li	gp,1809
8000379c:	00000213          	li	tp,0
800037a0:	f00ff0b7          	lui	ra,0xf00ff
800037a4:	00f08093          	addi	ra,ra,15 # f00ff00f <_end+0x700f4f3f>
800037a8:	0f00e713          	ori	a4,ra,240
800037ac:	00000013          	nop
800037b0:	00000013          	nop
800037b4:	00070313          	mv	t1,a4
800037b8:	00120213          	addi	tp,tp,1 # 1 <_start-0x7fffffff>
800037bc:	00200293          	li	t0,2
800037c0:	fe5210e3          	bne	tp,t0,800037a0 <test_1809+0x8>
800037c4:	f00ff3b7          	lui	t2,0xf00ff
800037c8:	0ff38393          	addi	t2,t2,255 # f00ff0ff <_end+0x700f502f>
800037cc:	00730463          	beq	t1,t2,800037d4 <test_1810>
800037d0:	0e80506f          	j	800088b8 <fail>

800037d4 <test_1810>:
800037d4:	71200193          	li	gp,1810
800037d8:	00000213          	li	tp,0
800037dc:	0ff010b7          	lui	ra,0xff01
800037e0:	ff008093          	addi	ra,ra,-16 # ff00ff0 <_start-0x700ff010>
800037e4:	0f00e713          	ori	a4,ra,240
800037e8:	00120213          	addi	tp,tp,1 # 1 <_start-0x7fffffff>
800037ec:	00200293          	li	t0,2
800037f0:	fe5216e3          	bne	tp,t0,800037dc <test_1810+0x8>
800037f4:	0ff013b7          	lui	t2,0xff01
800037f8:	ff038393          	addi	t2,t2,-16 # ff00ff0 <_start-0x700ff010>
800037fc:	00770463          	beq	a4,t2,80003804 <test_1811>
80003800:	0b80506f          	j	800088b8 <fail>

80003804 <test_1811>:
80003804:	71300193          	li	gp,1811
80003808:	00000213          	li	tp,0
8000380c:	00ff00b7          	lui	ra,0xff0
80003810:	0ff08093          	addi	ra,ra,255 # ff00ff <_start-0x7f00ff01>
80003814:	00000013          	nop
80003818:	f0f0e713          	ori	a4,ra,-241
8000381c:	00120213          	addi	tp,tp,1 # 1 <_start-0x7fffffff>
80003820:	00200293          	li	t0,2
80003824:	fe5214e3          	bne	tp,t0,8000380c <test_1811+0x8>
80003828:	fff00393          	li	t2,-1
8000382c:	00770463          	beq	a4,t2,80003834 <test_1812>
80003830:	0880506f          	j	800088b8 <fail>

80003834 <test_1812>:
80003834:	71400193          	li	gp,1812
80003838:	00000213          	li	tp,0
8000383c:	f00ff0b7          	lui	ra,0xf00ff
80003840:	00f08093          	addi	ra,ra,15 # f00ff00f <_end+0x700f4f3f>
80003844:	00000013          	nop
80003848:	00000013          	nop
8000384c:	0f00e713          	ori	a4,ra,240
80003850:	00120213          	addi	tp,tp,1 # 1 <_start-0x7fffffff>
80003854:	00200293          	li	t0,2
80003858:	fe5212e3          	bne	tp,t0,8000383c <test_1812+0x8>
8000385c:	f00ff3b7          	lui	t2,0xf00ff
80003860:	0ff38393          	addi	t2,t2,255 # f00ff0ff <_end+0x700f502f>
80003864:	00770463          	beq	a4,t2,8000386c <test_1813>
80003868:	0500506f          	j	800088b8 <fail>

8000386c <test_1813>:
8000386c:	71500193          	li	gp,1813
80003870:	0f006093          	ori	ra,zero,240
80003874:	0f000393          	li	t2,240
80003878:	00708463          	beq	ra,t2,80003880 <test_1814>
8000387c:	03c0506f          	j	800088b8 <fail>

80003880 <test_1814>:
80003880:	71600193          	li	gp,1814
80003884:	00ff00b7          	lui	ra,0xff0
80003888:	0ff08093          	addi	ra,ra,255 # ff00ff <_start-0x7f00ff01>
8000388c:	70f0e013          	ori	zero,ra,1807
80003890:	00000393          	li	t2,0
80003894:	00700463          	beq	zero,t2,8000389c <test_1902>
80003898:	0200506f          	j	800088b8 <fail>

8000389c <test_1902>:
8000389c:	76e00193          	li	gp,1902
800038a0:	00006097          	auipc	ra,0x6
800038a4:	7c008093          	addi	ra,ra,1984 # 8000a060 <sh_tdat>
800038a8:	0aa00113          	li	sp,170
800038ac:	00000797          	auipc	a5,0x0
800038b0:	01478793          	addi	a5,a5,20 # 800038c0 <test_1902+0x24>
800038b4:	00209023          	sh	sp,0(ra)
800038b8:	00009703          	lh	a4,0(ra)
800038bc:	0080006f          	j	800038c4 <test_1902+0x28>
800038c0:	00010713          	mv	a4,sp
800038c4:	0aa00393          	li	t2,170
800038c8:	00770463          	beq	a4,t2,800038d0 <test_1903>
800038cc:	7ed0406f          	j	800088b8 <fail>

800038d0 <test_1903>:
800038d0:	76f00193          	li	gp,1903
800038d4:	00006097          	auipc	ra,0x6
800038d8:	78c08093          	addi	ra,ra,1932 # 8000a060 <sh_tdat>
800038dc:	ffffb137          	lui	sp,0xffffb
800038e0:	a0010113          	addi	sp,sp,-1536 # ffffaa00 <_end+0x7fff0930>
800038e4:	00000797          	auipc	a5,0x0
800038e8:	01478793          	addi	a5,a5,20 # 800038f8 <test_1903+0x28>
800038ec:	00209123          	sh	sp,2(ra)
800038f0:	00209703          	lh	a4,2(ra)
800038f4:	0080006f          	j	800038fc <test_1903+0x2c>
800038f8:	00010713          	mv	a4,sp
800038fc:	ffffb3b7          	lui	t2,0xffffb
80003900:	a0038393          	addi	t2,t2,-1536 # ffffaa00 <_end+0x7fff0930>
80003904:	00770463          	beq	a4,t2,8000390c <test_1904>
80003908:	7b10406f          	j	800088b8 <fail>

8000390c <test_1904>:
8000390c:	77000193          	li	gp,1904
80003910:	00006097          	auipc	ra,0x6
80003914:	75008093          	addi	ra,ra,1872 # 8000a060 <sh_tdat>
80003918:	beef1137          	lui	sp,0xbeef1
8000391c:	aa010113          	addi	sp,sp,-1376 # beef0aa0 <_end+0x3eee69d0>
80003920:	00000797          	auipc	a5,0x0
80003924:	01478793          	addi	a5,a5,20 # 80003934 <test_1904+0x28>
80003928:	00209223          	sh	sp,4(ra)
8000392c:	0040a703          	lw	a4,4(ra)
80003930:	0080006f          	j	80003938 <test_1904+0x2c>
80003934:	00010713          	mv	a4,sp
80003938:	beef13b7          	lui	t2,0xbeef1
8000393c:	aa038393          	addi	t2,t2,-1376 # beef0aa0 <_end+0x3eee69d0>
80003940:	00770463          	beq	a4,t2,80003948 <test_1905>
80003944:	7750406f          	j	800088b8 <fail>

80003948 <test_1905>:
80003948:	77100193          	li	gp,1905
8000394c:	00006097          	auipc	ra,0x6
80003950:	71408093          	addi	ra,ra,1812 # 8000a060 <sh_tdat>
80003954:	ffffa137          	lui	sp,0xffffa
80003958:	00a10113          	addi	sp,sp,10 # ffffa00a <_end+0x7ffeff3a>
8000395c:	00000797          	auipc	a5,0x0
80003960:	01478793          	addi	a5,a5,20 # 80003970 <test_1905+0x28>
80003964:	00209323          	sh	sp,6(ra)
80003968:	00609703          	lh	a4,6(ra)
8000396c:	0080006f          	j	80003974 <test_1905+0x2c>
80003970:	00010713          	mv	a4,sp
80003974:	ffffa3b7          	lui	t2,0xffffa
80003978:	00a38393          	addi	t2,t2,10 # ffffa00a <_end+0x7ffeff3a>
8000397c:	00770463          	beq	a4,t2,80003984 <test_1906>
80003980:	7390406f          	j	800088b8 <fail>

80003984 <test_1906>:
80003984:	77200193          	li	gp,1906
80003988:	00006097          	auipc	ra,0x6
8000398c:	6e608093          	addi	ra,ra,1766 # 8000a06e <sh_tdat8>
80003990:	0aa00113          	li	sp,170
80003994:	00000797          	auipc	a5,0x0
80003998:	01478793          	addi	a5,a5,20 # 800039a8 <test_1906+0x24>
8000399c:	fe209d23          	sh	sp,-6(ra)
800039a0:	ffa09703          	lh	a4,-6(ra)
800039a4:	0080006f          	j	800039ac <test_1906+0x28>
800039a8:	00010713          	mv	a4,sp
800039ac:	0aa00393          	li	t2,170
800039b0:	00770463          	beq	a4,t2,800039b8 <test_1907>
800039b4:	7050406f          	j	800088b8 <fail>

800039b8 <test_1907>:
800039b8:	77300193          	li	gp,1907
800039bc:	00006097          	auipc	ra,0x6
800039c0:	6b208093          	addi	ra,ra,1714 # 8000a06e <sh_tdat8>
800039c4:	ffffb137          	lui	sp,0xffffb
800039c8:	a0010113          	addi	sp,sp,-1536 # ffffaa00 <_end+0x7fff0930>
800039cc:	00000797          	auipc	a5,0x0
800039d0:	01478793          	addi	a5,a5,20 # 800039e0 <test_1907+0x28>
800039d4:	fe209e23          	sh	sp,-4(ra)
800039d8:	ffc09703          	lh	a4,-4(ra)
800039dc:	0080006f          	j	800039e4 <test_1907+0x2c>
800039e0:	00010713          	mv	a4,sp
800039e4:	ffffb3b7          	lui	t2,0xffffb
800039e8:	a0038393          	addi	t2,t2,-1536 # ffffaa00 <_end+0x7fff0930>
800039ec:	00770463          	beq	a4,t2,800039f4 <test_1908>
800039f0:	6c90406f          	j	800088b8 <fail>

800039f4 <test_1908>:
800039f4:	77400193          	li	gp,1908
800039f8:	00006097          	auipc	ra,0x6
800039fc:	67608093          	addi	ra,ra,1654 # 8000a06e <sh_tdat8>
80003a00:	00001137          	lui	sp,0x1
80003a04:	aa010113          	addi	sp,sp,-1376 # aa0 <_start-0x7ffff560>
80003a08:	00000797          	auipc	a5,0x0
80003a0c:	01478793          	addi	a5,a5,20 # 80003a1c <test_1908+0x28>
80003a10:	fe209f23          	sh	sp,-2(ra)
80003a14:	ffe09703          	lh	a4,-2(ra)
80003a18:	0080006f          	j	80003a20 <test_1908+0x2c>
80003a1c:	00010713          	mv	a4,sp
80003a20:	000013b7          	lui	t2,0x1
80003a24:	aa038393          	addi	t2,t2,-1376 # aa0 <_start-0x7ffff560>
80003a28:	00770463          	beq	a4,t2,80003a30 <test_1909>
80003a2c:	68d0406f          	j	800088b8 <fail>

80003a30 <test_1909>:
80003a30:	77500193          	li	gp,1909
80003a34:	00006097          	auipc	ra,0x6
80003a38:	63a08093          	addi	ra,ra,1594 # 8000a06e <sh_tdat8>
80003a3c:	ffffa137          	lui	sp,0xffffa
80003a40:	00a10113          	addi	sp,sp,10 # ffffa00a <_end+0x7ffeff3a>
80003a44:	00000797          	auipc	a5,0x0
80003a48:	01478793          	addi	a5,a5,20 # 80003a58 <test_1909+0x28>
80003a4c:	00209023          	sh	sp,0(ra)
80003a50:	00009703          	lh	a4,0(ra)
80003a54:	0080006f          	j	80003a5c <test_1909+0x2c>
80003a58:	00010713          	mv	a4,sp
80003a5c:	ffffa3b7          	lui	t2,0xffffa
80003a60:	00a38393          	addi	t2,t2,10 # ffffa00a <_end+0x7ffeff3a>
80003a64:	00770463          	beq	a4,t2,80003a6c <test_1910>
80003a68:	6510406f          	j	800088b8 <fail>

80003a6c <test_1910>:
80003a6c:	77600193          	li	gp,1910
80003a70:	00006097          	auipc	ra,0x6
80003a74:	60008093          	addi	ra,ra,1536 # 8000a070 <sh_tdat9>
80003a78:	12345137          	lui	sp,0x12345
80003a7c:	67810113          	addi	sp,sp,1656 # 12345678 <_start-0x6dcba988>
80003a80:	fe008213          	addi	tp,ra,-32
80003a84:	02221023          	sh	sp,32(tp) # 20 <_start-0x7fffffe0>
80003a88:	00009283          	lh	t0,0(ra)
80003a8c:	000053b7          	lui	t2,0x5
80003a90:	67838393          	addi	t2,t2,1656 # 5678 <_start-0x7fffa988>
80003a94:	00728463          	beq	t0,t2,80003a9c <test_1911>
80003a98:	6210406f          	j	800088b8 <fail>

80003a9c <test_1911>:
80003a9c:	77700193          	li	gp,1911
80003aa0:	00006097          	auipc	ra,0x6
80003aa4:	5d008093          	addi	ra,ra,1488 # 8000a070 <sh_tdat9>
80003aa8:	00003137          	lui	sp,0x3
80003aac:	09810113          	addi	sp,sp,152 # 3098 <_start-0x7fffcf68>
80003ab0:	ffb08093          	addi	ra,ra,-5
80003ab4:	002093a3          	sh	sp,7(ra)
80003ab8:	00006217          	auipc	tp,0x6
80003abc:	5ba20213          	addi	tp,tp,1466 # 8000a072 <sh_tdat10>
80003ac0:	00021283          	lh	t0,0(tp) # 0 <_start-0x80000000>
80003ac4:	000033b7          	lui	t2,0x3
80003ac8:	09838393          	addi	t2,t2,152 # 3098 <_start-0x7fffcf68>
80003acc:	00728463          	beq	t0,t2,80003ad4 <test_1912>
80003ad0:	5e90406f          	j	800088b8 <fail>

80003ad4 <test_1912>:
80003ad4:	77800193          	li	gp,1912
80003ad8:	00000213          	li	tp,0
80003adc:	ffffd0b7          	lui	ra,0xffffd
80003ae0:	cdd08093          	addi	ra,ra,-803 # ffffccdd <_end+0x7fff2c0d>
80003ae4:	00006117          	auipc	sp,0x6
80003ae8:	57c10113          	addi	sp,sp,1404 # 8000a060 <sh_tdat>
80003aec:	00111023          	sh	ra,0(sp)
80003af0:	00011703          	lh	a4,0(sp)
80003af4:	ffffd3b7          	lui	t2,0xffffd
80003af8:	cdd38393          	addi	t2,t2,-803 # ffffccdd <_end+0x7fff2c0d>
80003afc:	00770463          	beq	a4,t2,80003b04 <test_1912+0x30>
80003b00:	5b90406f          	j	800088b8 <fail>
80003b04:	00120213          	addi	tp,tp,1 # 1 <_start-0x7fffffff>
80003b08:	00200293          	li	t0,2
80003b0c:	fc5218e3          	bne	tp,t0,80003adc <test_1912+0x8>

80003b10 <test_1913>:
80003b10:	77900193          	li	gp,1913
80003b14:	00000213          	li	tp,0
80003b18:	ffffc0b7          	lui	ra,0xffffc
80003b1c:	ccd08093          	addi	ra,ra,-819 # ffffbccd <_end+0x7fff1bfd>
80003b20:	00006117          	auipc	sp,0x6
80003b24:	54010113          	addi	sp,sp,1344 # 8000a060 <sh_tdat>
80003b28:	00000013          	nop
80003b2c:	00111123          	sh	ra,2(sp)
80003b30:	00211703          	lh	a4,2(sp)
80003b34:	ffffc3b7          	lui	t2,0xffffc
80003b38:	ccd38393          	addi	t2,t2,-819 # ffffbccd <_end+0x7fff1bfd>
80003b3c:	00770463          	beq	a4,t2,80003b44 <test_1913+0x34>
80003b40:	5790406f          	j	800088b8 <fail>
80003b44:	00120213          	addi	tp,tp,1 # 1 <_start-0x7fffffff>
80003b48:	00200293          	li	t0,2
80003b4c:	fc5216e3          	bne	tp,t0,80003b18 <test_1913+0x8>

80003b50 <test_1914>:
80003b50:	77a00193          	li	gp,1914
80003b54:	00000213          	li	tp,0
80003b58:	ffffc0b7          	lui	ra,0xffffc
80003b5c:	bcc08093          	addi	ra,ra,-1076 # ffffbbcc <_end+0x7fff1afc>
80003b60:	00006117          	auipc	sp,0x6
80003b64:	50010113          	addi	sp,sp,1280 # 8000a060 <sh_tdat>
80003b68:	00000013          	nop
80003b6c:	00000013          	nop
80003b70:	00111223          	sh	ra,4(sp)
80003b74:	00411703          	lh	a4,4(sp)
80003b78:	ffffc3b7          	lui	t2,0xffffc
80003b7c:	bcc38393          	addi	t2,t2,-1076 # ffffbbcc <_end+0x7fff1afc>
80003b80:	00770463          	beq	a4,t2,80003b88 <test_1914+0x38>
80003b84:	5350406f          	j	800088b8 <fail>
80003b88:	00120213          	addi	tp,tp,1 # 1 <_start-0x7fffffff>
80003b8c:	00200293          	li	t0,2
80003b90:	fc5214e3          	bne	tp,t0,80003b58 <test_1914+0x8>

80003b94 <test_1915>:
80003b94:	77b00193          	li	gp,1915
80003b98:	00000213          	li	tp,0
80003b9c:	ffffb0b7          	lui	ra,0xffffb
80003ba0:	bbc08093          	addi	ra,ra,-1092 # ffffabbc <_end+0x7fff0aec>
80003ba4:	00000013          	nop
80003ba8:	00006117          	auipc	sp,0x6
80003bac:	4b810113          	addi	sp,sp,1208 # 8000a060 <sh_tdat>
80003bb0:	00111323          	sh	ra,6(sp)
80003bb4:	00611703          	lh	a4,6(sp)
80003bb8:	ffffb3b7          	lui	t2,0xffffb
80003bbc:	bbc38393          	addi	t2,t2,-1092 # ffffabbc <_end+0x7fff0aec>
80003bc0:	00770463          	beq	a4,t2,80003bc8 <test_1915+0x34>
80003bc4:	4f50406f          	j	800088b8 <fail>
80003bc8:	00120213          	addi	tp,tp,1 # 1 <_start-0x7fffffff>
80003bcc:	00200293          	li	t0,2
80003bd0:	fc5216e3          	bne	tp,t0,80003b9c <test_1915+0x8>

80003bd4 <test_1916>:
80003bd4:	77c00193          	li	gp,1916
80003bd8:	00000213          	li	tp,0
80003bdc:	ffffb0b7          	lui	ra,0xffffb
80003be0:	abb08093          	addi	ra,ra,-1349 # ffffaabb <_end+0x7fff09eb>
80003be4:	00000013          	nop
80003be8:	00006117          	auipc	sp,0x6
80003bec:	47810113          	addi	sp,sp,1144 # 8000a060 <sh_tdat>
80003bf0:	00000013          	nop
80003bf4:	00111423          	sh	ra,8(sp)
80003bf8:	00811703          	lh	a4,8(sp)
80003bfc:	ffffb3b7          	lui	t2,0xffffb
80003c00:	abb38393          	addi	t2,t2,-1349 # ffffaabb <_end+0x7fff09eb>
80003c04:	00770463          	beq	a4,t2,80003c0c <test_1916+0x38>
80003c08:	4b10406f          	j	800088b8 <fail>
80003c0c:	00120213          	addi	tp,tp,1 # 1 <_start-0x7fffffff>
80003c10:	00200293          	li	t0,2
80003c14:	fc5214e3          	bne	tp,t0,80003bdc <test_1916+0x8>

80003c18 <test_1917>:
80003c18:	77d00193          	li	gp,1917
80003c1c:	00000213          	li	tp,0
80003c20:	ffffe0b7          	lui	ra,0xffffe
80003c24:	aab08093          	addi	ra,ra,-1365 # ffffdaab <_end+0x7fff39db>
80003c28:	00000013          	nop
80003c2c:	00000013          	nop
80003c30:	00006117          	auipc	sp,0x6
80003c34:	43010113          	addi	sp,sp,1072 # 8000a060 <sh_tdat>
80003c38:	00111523          	sh	ra,10(sp)
80003c3c:	00a11703          	lh	a4,10(sp)
80003c40:	ffffe3b7          	lui	t2,0xffffe
80003c44:	aab38393          	addi	t2,t2,-1365 # ffffdaab <_end+0x7fff39db>
80003c48:	00770463          	beq	a4,t2,80003c50 <test_1917+0x38>
80003c4c:	46d0406f          	j	800088b8 <fail>
80003c50:	00120213          	addi	tp,tp,1 # 1 <_start-0x7fffffff>
80003c54:	00200293          	li	t0,2
80003c58:	fc5214e3          	bne	tp,t0,80003c20 <test_1917+0x8>

80003c5c <test_1918>:
80003c5c:	77e00193          	li	gp,1918
80003c60:	00000213          	li	tp,0
80003c64:	00006117          	auipc	sp,0x6
80003c68:	3fc10113          	addi	sp,sp,1020 # 8000a060 <sh_tdat>
80003c6c:	000020b7          	lui	ra,0x2
80003c70:	23308093          	addi	ra,ra,563 # 2233 <_start-0x7fffddcd>
80003c74:	00111023          	sh	ra,0(sp)
80003c78:	00011703          	lh	a4,0(sp)
80003c7c:	000023b7          	lui	t2,0x2
80003c80:	23338393          	addi	t2,t2,563 # 2233 <_start-0x7fffddcd>
80003c84:	00770463          	beq	a4,t2,80003c8c <test_1918+0x30>
80003c88:	4310406f          	j	800088b8 <fail>
80003c8c:	00120213          	addi	tp,tp,1 # 1 <_start-0x7fffffff>
80003c90:	00200293          	li	t0,2
80003c94:	fc5218e3          	bne	tp,t0,80003c64 <test_1918+0x8>

80003c98 <test_1919>:
80003c98:	77f00193          	li	gp,1919
80003c9c:	00000213          	li	tp,0
80003ca0:	00006117          	auipc	sp,0x6
80003ca4:	3c010113          	addi	sp,sp,960 # 8000a060 <sh_tdat>
80003ca8:	000010b7          	lui	ra,0x1
80003cac:	22308093          	addi	ra,ra,547 # 1223 <_start-0x7fffeddd>
80003cb0:	00000013          	nop
80003cb4:	00111123          	sh	ra,2(sp)
80003cb8:	00211703          	lh	a4,2(sp)
80003cbc:	000013b7          	lui	t2,0x1
80003cc0:	22338393          	addi	t2,t2,547 # 1223 <_start-0x7fffeddd>
80003cc4:	00770463          	beq	a4,t2,80003ccc <test_1919+0x34>
80003cc8:	3f10406f          	j	800088b8 <fail>
80003ccc:	00120213          	addi	tp,tp,1 # 1 <_start-0x7fffffff>
80003cd0:	00200293          	li	t0,2
80003cd4:	fc5216e3          	bne	tp,t0,80003ca0 <test_1919+0x8>

80003cd8 <test_1920>:
80003cd8:	78000193          	li	gp,1920
80003cdc:	00000213          	li	tp,0
80003ce0:	00006117          	auipc	sp,0x6
80003ce4:	38010113          	addi	sp,sp,896 # 8000a060 <sh_tdat>
80003ce8:	000010b7          	lui	ra,0x1
80003cec:	12208093          	addi	ra,ra,290 # 1122 <_start-0x7fffeede>
80003cf0:	00000013          	nop
80003cf4:	00000013          	nop
80003cf8:	00111223          	sh	ra,4(sp)
80003cfc:	00411703          	lh	a4,4(sp)
80003d00:	000013b7          	lui	t2,0x1
80003d04:	12238393          	addi	t2,t2,290 # 1122 <_start-0x7fffeede>
80003d08:	00770463          	beq	a4,t2,80003d10 <test_1920+0x38>
80003d0c:	3ad0406f          	j	800088b8 <fail>
80003d10:	00120213          	addi	tp,tp,1 # 1 <_start-0x7fffffff>
80003d14:	00200293          	li	t0,2
80003d18:	fc5214e3          	bne	tp,t0,80003ce0 <test_1920+0x8>

80003d1c <test_1921>:
80003d1c:	78100193          	li	gp,1921
80003d20:	00000213          	li	tp,0
80003d24:	00006117          	auipc	sp,0x6
80003d28:	33c10113          	addi	sp,sp,828 # 8000a060 <sh_tdat>
80003d2c:	00000013          	nop
80003d30:	11200093          	li	ra,274
80003d34:	00111323          	sh	ra,6(sp)
80003d38:	00611703          	lh	a4,6(sp)
80003d3c:	11200393          	li	t2,274
80003d40:	00770463          	beq	a4,t2,80003d48 <test_1921+0x2c>
80003d44:	3750406f          	j	800088b8 <fail>
80003d48:	00120213          	addi	tp,tp,1 # 1 <_start-0x7fffffff>
80003d4c:	00200293          	li	t0,2
80003d50:	fc521ae3          	bne	tp,t0,80003d24 <test_1921+0x8>

80003d54 <test_1922>:
80003d54:	78200193          	li	gp,1922
80003d58:	00000213          	li	tp,0
80003d5c:	00006117          	auipc	sp,0x6
80003d60:	30410113          	addi	sp,sp,772 # 8000a060 <sh_tdat>
80003d64:	00000013          	nop
80003d68:	01100093          	li	ra,17
80003d6c:	00000013          	nop
80003d70:	00111423          	sh	ra,8(sp)
80003d74:	00811703          	lh	a4,8(sp)
80003d78:	01100393          	li	t2,17
80003d7c:	00770463          	beq	a4,t2,80003d84 <test_1922+0x30>
80003d80:	3390406f          	j	800088b8 <fail>
80003d84:	00120213          	addi	tp,tp,1 # 1 <_start-0x7fffffff>
80003d88:	00200293          	li	t0,2
80003d8c:	fc5218e3          	bne	tp,t0,80003d5c <test_1922+0x8>

80003d90 <test_1923>:
80003d90:	78300193          	li	gp,1923
80003d94:	00000213          	li	tp,0
80003d98:	00006117          	auipc	sp,0x6
80003d9c:	2c810113          	addi	sp,sp,712 # 8000a060 <sh_tdat>
80003da0:	00000013          	nop
80003da4:	00000013          	nop
80003da8:	000030b7          	lui	ra,0x3
80003dac:	00108093          	addi	ra,ra,1 # 3001 <_start-0x7fffcfff>
80003db0:	00111523          	sh	ra,10(sp)
80003db4:	00a11703          	lh	a4,10(sp)
80003db8:	000033b7          	lui	t2,0x3
80003dbc:	00138393          	addi	t2,t2,1 # 3001 <_start-0x7fffcfff>
80003dc0:	00770463          	beq	a4,t2,80003dc8 <test_1923+0x38>
80003dc4:	2f50406f          	j	800088b8 <fail>
80003dc8:	00120213          	addi	tp,tp,1 # 1 <_start-0x7fffffff>
80003dcc:	00200293          	li	t0,2
80003dd0:	fc5214e3          	bne	tp,t0,80003d98 <test_1923+0x8>
80003dd4:	0000c537          	lui	a0,0xc
80003dd8:	eef50513          	addi	a0,a0,-273 # beef <_start-0x7fff4111>
80003ddc:	00006597          	auipc	a1,0x6
80003de0:	28458593          	addi	a1,a1,644 # 8000a060 <sh_tdat>
80003de4:	00a59323          	sh	a0,6(a1)

80003de8 <test_2002>:
80003de8:	7d200193          	li	gp,2002
80003dec:	00100093          	li	ra,1
80003df0:	00000113          	li	sp,0
80003df4:	00209733          	sll	a4,ra,sp
80003df8:	00100393          	li	t2,1
80003dfc:	00770463          	beq	a4,t2,80003e04 <test_2003>
80003e00:	2b90406f          	j	800088b8 <fail>

80003e04 <test_2003>:
80003e04:	7d300193          	li	gp,2003
80003e08:	00100093          	li	ra,1
80003e0c:	00100113          	li	sp,1
80003e10:	00209733          	sll	a4,ra,sp
80003e14:	00200393          	li	t2,2
80003e18:	00770463          	beq	a4,t2,80003e20 <test_2004>
80003e1c:	29d0406f          	j	800088b8 <fail>

80003e20 <test_2004>:
80003e20:	7d400193          	li	gp,2004
80003e24:	00100093          	li	ra,1
80003e28:	00700113          	li	sp,7
80003e2c:	00209733          	sll	a4,ra,sp
80003e30:	08000393          	li	t2,128
80003e34:	00770463          	beq	a4,t2,80003e3c <test_2005>
80003e38:	2810406f          	j	800088b8 <fail>

80003e3c <test_2005>:
80003e3c:	7d500193          	li	gp,2005
80003e40:	00100093          	li	ra,1
80003e44:	00e00113          	li	sp,14
80003e48:	00209733          	sll	a4,ra,sp
80003e4c:	000043b7          	lui	t2,0x4
80003e50:	00770463          	beq	a4,t2,80003e58 <test_2006>
80003e54:	2650406f          	j	800088b8 <fail>

80003e58 <test_2006>:
80003e58:	7d600193          	li	gp,2006
80003e5c:	00100093          	li	ra,1
80003e60:	01f00113          	li	sp,31
80003e64:	00209733          	sll	a4,ra,sp
80003e68:	800003b7          	lui	t2,0x80000
80003e6c:	00770463          	beq	a4,t2,80003e74 <test_2007>
80003e70:	2490406f          	j	800088b8 <fail>

80003e74 <test_2007>:
80003e74:	7d700193          	li	gp,2007
80003e78:	fff00093          	li	ra,-1
80003e7c:	00000113          	li	sp,0
80003e80:	00209733          	sll	a4,ra,sp
80003e84:	fff00393          	li	t2,-1
80003e88:	00770463          	beq	a4,t2,80003e90 <test_2008>
80003e8c:	22d0406f          	j	800088b8 <fail>

80003e90 <test_2008>:
80003e90:	7d800193          	li	gp,2008
80003e94:	fff00093          	li	ra,-1
80003e98:	00100113          	li	sp,1
80003e9c:	00209733          	sll	a4,ra,sp
80003ea0:	ffe00393          	li	t2,-2
80003ea4:	00770463          	beq	a4,t2,80003eac <test_2009>
80003ea8:	2110406f          	j	800088b8 <fail>

80003eac <test_2009>:
80003eac:	7d900193          	li	gp,2009
80003eb0:	fff00093          	li	ra,-1
80003eb4:	00700113          	li	sp,7
80003eb8:	00209733          	sll	a4,ra,sp
80003ebc:	f8000393          	li	t2,-128
80003ec0:	00770463          	beq	a4,t2,80003ec8 <test_2010>
80003ec4:	1f50406f          	j	800088b8 <fail>

80003ec8 <test_2010>:
80003ec8:	7da00193          	li	gp,2010
80003ecc:	fff00093          	li	ra,-1
80003ed0:	00e00113          	li	sp,14
80003ed4:	00209733          	sll	a4,ra,sp
80003ed8:	ffffc3b7          	lui	t2,0xffffc
80003edc:	00770463          	beq	a4,t2,80003ee4 <test_2011>
80003ee0:	1d90406f          	j	800088b8 <fail>

80003ee4 <test_2011>:
80003ee4:	7db00193          	li	gp,2011
80003ee8:	fff00093          	li	ra,-1
80003eec:	01f00113          	li	sp,31
80003ef0:	00209733          	sll	a4,ra,sp
80003ef4:	800003b7          	lui	t2,0x80000
80003ef8:	00770463          	beq	a4,t2,80003f00 <test_2012>
80003efc:	1bd0406f          	j	800088b8 <fail>

80003f00 <test_2012>:
80003f00:	7dc00193          	li	gp,2012
80003f04:	212120b7          	lui	ra,0x21212
80003f08:	12108093          	addi	ra,ra,289 # 21212121 <_start-0x5edededf>
80003f0c:	00000113          	li	sp,0
80003f10:	00209733          	sll	a4,ra,sp
80003f14:	212123b7          	lui	t2,0x21212
80003f18:	12138393          	addi	t2,t2,289 # 21212121 <_start-0x5edededf>
80003f1c:	00770463          	beq	a4,t2,80003f24 <test_2013>
80003f20:	1990406f          	j	800088b8 <fail>

80003f24 <test_2013>:
80003f24:	7dd00193          	li	gp,2013
80003f28:	212120b7          	lui	ra,0x21212
80003f2c:	12108093          	addi	ra,ra,289 # 21212121 <_start-0x5edededf>
80003f30:	00100113          	li	sp,1
80003f34:	00209733          	sll	a4,ra,sp
80003f38:	424243b7          	lui	t2,0x42424
80003f3c:	24238393          	addi	t2,t2,578 # 42424242 <_start-0x3dbdbdbe>
80003f40:	00770463          	beq	a4,t2,80003f48 <test_2014>
80003f44:	1750406f          	j	800088b8 <fail>

80003f48 <test_2014>:
80003f48:	7de00193          	li	gp,2014
80003f4c:	212120b7          	lui	ra,0x21212
80003f50:	12108093          	addi	ra,ra,289 # 21212121 <_start-0x5edededf>
80003f54:	00700113          	li	sp,7
80003f58:	00209733          	sll	a4,ra,sp
80003f5c:	909093b7          	lui	t2,0x90909
80003f60:	08038393          	addi	t2,t2,128 # 90909080 <_end+0x108fefb0>
80003f64:	00770463          	beq	a4,t2,80003f6c <test_2015>
80003f68:	1510406f          	j	800088b8 <fail>

80003f6c <test_2015>:
80003f6c:	7df00193          	li	gp,2015
80003f70:	212120b7          	lui	ra,0x21212
80003f74:	12108093          	addi	ra,ra,289 # 21212121 <_start-0x5edededf>
80003f78:	00e00113          	li	sp,14
80003f7c:	00209733          	sll	a4,ra,sp
80003f80:	484843b7          	lui	t2,0x48484
80003f84:	00770463          	beq	a4,t2,80003f8c <test_2016>
80003f88:	1310406f          	j	800088b8 <fail>

80003f8c <test_2016>:
80003f8c:	7e000193          	li	gp,2016
80003f90:	212120b7          	lui	ra,0x21212
80003f94:	12108093          	addi	ra,ra,289 # 21212121 <_start-0x5edededf>
80003f98:	01f00113          	li	sp,31
80003f9c:	00209733          	sll	a4,ra,sp
80003fa0:	800003b7          	lui	t2,0x80000
80003fa4:	00770463          	beq	a4,t2,80003fac <test_2017>
80003fa8:	1110406f          	j	800088b8 <fail>

80003fac <test_2017>:
80003fac:	7e100193          	li	gp,2017
80003fb0:	212120b7          	lui	ra,0x21212
80003fb4:	12108093          	addi	ra,ra,289 # 21212121 <_start-0x5edededf>
80003fb8:	fc000113          	li	sp,-64
80003fbc:	00209733          	sll	a4,ra,sp
80003fc0:	212123b7          	lui	t2,0x21212
80003fc4:	12138393          	addi	t2,t2,289 # 21212121 <_start-0x5edededf>
80003fc8:	00770463          	beq	a4,t2,80003fd0 <test_2018>
80003fcc:	0ed0406f          	j	800088b8 <fail>

80003fd0 <test_2018>:
80003fd0:	7e200193          	li	gp,2018
80003fd4:	212120b7          	lui	ra,0x21212
80003fd8:	12108093          	addi	ra,ra,289 # 21212121 <_start-0x5edededf>
80003fdc:	fc100113          	li	sp,-63
80003fe0:	00209733          	sll	a4,ra,sp
80003fe4:	424243b7          	lui	t2,0x42424
80003fe8:	24238393          	addi	t2,t2,578 # 42424242 <_start-0x3dbdbdbe>
80003fec:	00770463          	beq	a4,t2,80003ff4 <test_2019>
80003ff0:	0c90406f          	j	800088b8 <fail>

80003ff4 <test_2019>:
80003ff4:	7e300193          	li	gp,2019
80003ff8:	212120b7          	lui	ra,0x21212
80003ffc:	12108093          	addi	ra,ra,289 # 21212121 <_start-0x5edededf>
80004000:	fc700113          	li	sp,-57
80004004:	00209733          	sll	a4,ra,sp
80004008:	909093b7          	lui	t2,0x90909
8000400c:	08038393          	addi	t2,t2,128 # 90909080 <_end+0x108fefb0>
80004010:	00770463          	beq	a4,t2,80004018 <test_2020>
80004014:	0a50406f          	j	800088b8 <fail>

80004018 <test_2020>:
80004018:	7e400193          	li	gp,2020
8000401c:	212120b7          	lui	ra,0x21212
80004020:	12108093          	addi	ra,ra,289 # 21212121 <_start-0x5edededf>
80004024:	fce00113          	li	sp,-50
80004028:	00209733          	sll	a4,ra,sp
8000402c:	484843b7          	lui	t2,0x48484
80004030:	00770463          	beq	a4,t2,80004038 <test_2022>
80004034:	0850406f          	j	800088b8 <fail>

80004038 <test_2022>:
80004038:	7e600193          	li	gp,2022
8000403c:	00100093          	li	ra,1
80004040:	00700113          	li	sp,7
80004044:	002090b3          	sll	ra,ra,sp
80004048:	08000393          	li	t2,128
8000404c:	00708463          	beq	ra,t2,80004054 <test_2023>
80004050:	0690406f          	j	800088b8 <fail>

80004054 <test_2023>:
80004054:	7e700193          	li	gp,2023
80004058:	00100093          	li	ra,1
8000405c:	00e00113          	li	sp,14
80004060:	00209133          	sll	sp,ra,sp
80004064:	000043b7          	lui	t2,0x4
80004068:	00710463          	beq	sp,t2,80004070 <test_2024>
8000406c:	04d0406f          	j	800088b8 <fail>

80004070 <test_2024>:
80004070:	7e800193          	li	gp,2024
80004074:	00300093          	li	ra,3
80004078:	001090b3          	sll	ra,ra,ra
8000407c:	01800393          	li	t2,24
80004080:	00708463          	beq	ra,t2,80004088 <test_2025>
80004084:	0350406f          	j	800088b8 <fail>

80004088 <test_2025>:
80004088:	7e900193          	li	gp,2025
8000408c:	00000213          	li	tp,0
80004090:	00100093          	li	ra,1
80004094:	00700113          	li	sp,7
80004098:	00209733          	sll	a4,ra,sp
8000409c:	00070313          	mv	t1,a4
800040a0:	00120213          	addi	tp,tp,1 # 1 <_start-0x7fffffff>
800040a4:	00200293          	li	t0,2
800040a8:	fe5214e3          	bne	tp,t0,80004090 <test_2025+0x8>
800040ac:	08000393          	li	t2,128
800040b0:	00730463          	beq	t1,t2,800040b8 <test_2026>
800040b4:	0050406f          	j	800088b8 <fail>

800040b8 <test_2026>:
800040b8:	7ea00193          	li	gp,2026
800040bc:	00000213          	li	tp,0
800040c0:	00100093          	li	ra,1
800040c4:	00e00113          	li	sp,14
800040c8:	00209733          	sll	a4,ra,sp
800040cc:	00000013          	nop
800040d0:	00070313          	mv	t1,a4
800040d4:	00120213          	addi	tp,tp,1 # 1 <_start-0x7fffffff>
800040d8:	00200293          	li	t0,2
800040dc:	fe5212e3          	bne	tp,t0,800040c0 <test_2026+0x8>
800040e0:	000043b7          	lui	t2,0x4
800040e4:	00730463          	beq	t1,t2,800040ec <test_2027>
800040e8:	7d00406f          	j	800088b8 <fail>

800040ec <test_2027>:
800040ec:	7eb00193          	li	gp,2027
800040f0:	00000213          	li	tp,0
800040f4:	00100093          	li	ra,1
800040f8:	01f00113          	li	sp,31
800040fc:	00209733          	sll	a4,ra,sp
80004100:	00000013          	nop
80004104:	00000013          	nop
80004108:	00070313          	mv	t1,a4
8000410c:	00120213          	addi	tp,tp,1 # 1 <_start-0x7fffffff>
80004110:	00200293          	li	t0,2
80004114:	fe5210e3          	bne	tp,t0,800040f4 <test_2027+0x8>
80004118:	800003b7          	lui	t2,0x80000
8000411c:	00730463          	beq	t1,t2,80004124 <test_2028>
80004120:	7980406f          	j	800088b8 <fail>

80004124 <test_2028>:
80004124:	7ec00193          	li	gp,2028
80004128:	00000213          	li	tp,0
8000412c:	00100093          	li	ra,1
80004130:	00700113          	li	sp,7
80004134:	00209733          	sll	a4,ra,sp
80004138:	00120213          	addi	tp,tp,1 # 1 <_start-0x7fffffff>
8000413c:	00200293          	li	t0,2
80004140:	fe5216e3          	bne	tp,t0,8000412c <test_2028+0x8>
80004144:	08000393          	li	t2,128
80004148:	00770463          	beq	a4,t2,80004150 <test_2029>
8000414c:	76c0406f          	j	800088b8 <fail>

80004150 <test_2029>:
80004150:	7ed00193          	li	gp,2029
80004154:	00000213          	li	tp,0
80004158:	00100093          	li	ra,1
8000415c:	00e00113          	li	sp,14
80004160:	00000013          	nop
80004164:	00209733          	sll	a4,ra,sp
80004168:	00120213          	addi	tp,tp,1 # 1 <_start-0x7fffffff>
8000416c:	00200293          	li	t0,2
80004170:	fe5214e3          	bne	tp,t0,80004158 <test_2029+0x8>
80004174:	000043b7          	lui	t2,0x4
80004178:	00770463          	beq	a4,t2,80004180 <test_2030>
8000417c:	73c0406f          	j	800088b8 <fail>

80004180 <test_2030>:
80004180:	7ee00193          	li	gp,2030
80004184:	00000213          	li	tp,0
80004188:	00100093          	li	ra,1
8000418c:	01f00113          	li	sp,31
80004190:	00000013          	nop
80004194:	00000013          	nop
80004198:	00209733          	sll	a4,ra,sp
8000419c:	00120213          	addi	tp,tp,1 # 1 <_start-0x7fffffff>
800041a0:	00200293          	li	t0,2
800041a4:	fe5212e3          	bne	tp,t0,80004188 <test_2030+0x8>
800041a8:	800003b7          	lui	t2,0x80000
800041ac:	00770463          	beq	a4,t2,800041b4 <test_2031>
800041b0:	7080406f          	j	800088b8 <fail>

800041b4 <test_2031>:
800041b4:	7ef00193          	li	gp,2031
800041b8:	00000213          	li	tp,0
800041bc:	00100093          	li	ra,1
800041c0:	00000013          	nop
800041c4:	00700113          	li	sp,7
800041c8:	00209733          	sll	a4,ra,sp
800041cc:	00120213          	addi	tp,tp,1 # 1 <_start-0x7fffffff>
800041d0:	00200293          	li	t0,2
800041d4:	fe5214e3          	bne	tp,t0,800041bc <test_2031+0x8>
800041d8:	08000393          	li	t2,128
800041dc:	00770463          	beq	a4,t2,800041e4 <test_2032>
800041e0:	6d80406f          	j	800088b8 <fail>

800041e4 <test_2032>:
800041e4:	7f000193          	li	gp,2032
800041e8:	00000213          	li	tp,0
800041ec:	00100093          	li	ra,1
800041f0:	00000013          	nop
800041f4:	00e00113          	li	sp,14
800041f8:	00000013          	nop
800041fc:	00209733          	sll	a4,ra,sp
80004200:	00120213          	addi	tp,tp,1 # 1 <_start-0x7fffffff>
80004204:	00200293          	li	t0,2
80004208:	fe5212e3          	bne	tp,t0,800041ec <test_2032+0x8>
8000420c:	000043b7          	lui	t2,0x4
80004210:	00770463          	beq	a4,t2,80004218 <test_2033>
80004214:	6a40406f          	j	800088b8 <fail>

80004218 <test_2033>:
80004218:	7f100193          	li	gp,2033
8000421c:	00000213          	li	tp,0
80004220:	00100093          	li	ra,1
80004224:	00000013          	nop
80004228:	00000013          	nop
8000422c:	01f00113          	li	sp,31
80004230:	00209733          	sll	a4,ra,sp
80004234:	00120213          	addi	tp,tp,1 # 1 <_start-0x7fffffff>
80004238:	00200293          	li	t0,2
8000423c:	fe5212e3          	bne	tp,t0,80004220 <test_2033+0x8>
80004240:	800003b7          	lui	t2,0x80000
80004244:	00770463          	beq	a4,t2,8000424c <test_2034>
80004248:	6700406f          	j	800088b8 <fail>

8000424c <test_2034>:
8000424c:	7f200193          	li	gp,2034
80004250:	00000213          	li	tp,0
80004254:	00700113          	li	sp,7
80004258:	00100093          	li	ra,1
8000425c:	00209733          	sll	a4,ra,sp
80004260:	00120213          	addi	tp,tp,1 # 1 <_start-0x7fffffff>
80004264:	00200293          	li	t0,2
80004268:	fe5216e3          	bne	tp,t0,80004254 <test_2034+0x8>
8000426c:	08000393          	li	t2,128
80004270:	00770463          	beq	a4,t2,80004278 <test_2035>
80004274:	6440406f          	j	800088b8 <fail>

80004278 <test_2035>:
80004278:	7f300193          	li	gp,2035
8000427c:	00000213          	li	tp,0
80004280:	00e00113          	li	sp,14
80004284:	00100093          	li	ra,1
80004288:	00000013          	nop
8000428c:	00209733          	sll	a4,ra,sp
80004290:	00120213          	addi	tp,tp,1 # 1 <_start-0x7fffffff>
80004294:	00200293          	li	t0,2
80004298:	fe5214e3          	bne	tp,t0,80004280 <test_2035+0x8>
8000429c:	000043b7          	lui	t2,0x4
800042a0:	00770463          	beq	a4,t2,800042a8 <test_2036>
800042a4:	6140406f          	j	800088b8 <fail>

800042a8 <test_2036>:
800042a8:	7f400193          	li	gp,2036
800042ac:	00000213          	li	tp,0
800042b0:	01f00113          	li	sp,31
800042b4:	00100093          	li	ra,1
800042b8:	00000013          	nop
800042bc:	00000013          	nop
800042c0:	00209733          	sll	a4,ra,sp
800042c4:	00120213          	addi	tp,tp,1 # 1 <_start-0x7fffffff>
800042c8:	00200293          	li	t0,2
800042cc:	fe5212e3          	bne	tp,t0,800042b0 <test_2036+0x8>
800042d0:	800003b7          	lui	t2,0x80000
800042d4:	00770463          	beq	a4,t2,800042dc <test_2037>
800042d8:	5e00406f          	j	800088b8 <fail>

800042dc <test_2037>:
800042dc:	7f500193          	li	gp,2037
800042e0:	00000213          	li	tp,0
800042e4:	00700113          	li	sp,7
800042e8:	00000013          	nop
800042ec:	00100093          	li	ra,1
800042f0:	00209733          	sll	a4,ra,sp
800042f4:	00120213          	addi	tp,tp,1 # 1 <_start-0x7fffffff>
800042f8:	00200293          	li	t0,2
800042fc:	fe5214e3          	bne	tp,t0,800042e4 <test_2037+0x8>
80004300:	08000393          	li	t2,128
80004304:	00770463          	beq	a4,t2,8000430c <test_2038>
80004308:	5b00406f          	j	800088b8 <fail>

8000430c <test_2038>:
8000430c:	7f600193          	li	gp,2038
80004310:	00000213          	li	tp,0
80004314:	00e00113          	li	sp,14
80004318:	00000013          	nop
8000431c:	00100093          	li	ra,1
80004320:	00000013          	nop
80004324:	00209733          	sll	a4,ra,sp
80004328:	00120213          	addi	tp,tp,1 # 1 <_start-0x7fffffff>
8000432c:	00200293          	li	t0,2
80004330:	fe5212e3          	bne	tp,t0,80004314 <test_2038+0x8>
80004334:	000043b7          	lui	t2,0x4
80004338:	00770463          	beq	a4,t2,80004340 <test_2039>
8000433c:	57c0406f          	j	800088b8 <fail>

80004340 <test_2039>:
80004340:	7f700193          	li	gp,2039
80004344:	00000213          	li	tp,0
80004348:	01f00113          	li	sp,31
8000434c:	00000013          	nop
80004350:	00000013          	nop
80004354:	00100093          	li	ra,1
80004358:	00209733          	sll	a4,ra,sp
8000435c:	00120213          	addi	tp,tp,1 # 1 <_start-0x7fffffff>
80004360:	00200293          	li	t0,2
80004364:	fe5212e3          	bne	tp,t0,80004348 <test_2039+0x8>
80004368:	800003b7          	lui	t2,0x80000
8000436c:	00770463          	beq	a4,t2,80004374 <test_2040>
80004370:	5480406f          	j	800088b8 <fail>

80004374 <test_2040>:
80004374:	7f800193          	li	gp,2040
80004378:	00f00093          	li	ra,15
8000437c:	00101133          	sll	sp,zero,ra
80004380:	00000393          	li	t2,0
80004384:	00710463          	beq	sp,t2,8000438c <test_2041>
80004388:	5300406f          	j	800088b8 <fail>

8000438c <test_2041>:
8000438c:	7f900193          	li	gp,2041
80004390:	02000093          	li	ra,32
80004394:	00009133          	sll	sp,ra,zero
80004398:	02000393          	li	t2,32
8000439c:	00710463          	beq	sp,t2,800043a4 <test_2042>
800043a0:	5180406f          	j	800088b8 <fail>

800043a4 <test_2042>:
800043a4:	7fa00193          	li	gp,2042
800043a8:	000010b3          	sll	ra,zero,zero
800043ac:	00000393          	li	t2,0
800043b0:	00708463          	beq	ra,t2,800043b8 <test_2043>
800043b4:	5040406f          	j	800088b8 <fail>

800043b8 <test_2043>:
800043b8:	7fb00193          	li	gp,2043
800043bc:	40000093          	li	ra,1024
800043c0:	00001137          	lui	sp,0x1
800043c4:	80010113          	addi	sp,sp,-2048 # 800 <_start-0x7ffff800>
800043c8:	00209033          	sll	zero,ra,sp
800043cc:	00000393          	li	t2,0
800043d0:	00700463          	beq	zero,t2,800043d8 <test_2102>
800043d4:	4e40406f          	j	800088b8 <fail>

800043d8 <test_2102>:
800043d8:	000011b7          	lui	gp,0x1
800043dc:	83618193          	addi	gp,gp,-1994 # 836 <_start-0x7ffff7ca>
800043e0:	00100093          	li	ra,1
800043e4:	00009713          	slli	a4,ra,0x0
800043e8:	00100393          	li	t2,1
800043ec:	00770463          	beq	a4,t2,800043f4 <test_2103>
800043f0:	4c80406f          	j	800088b8 <fail>

800043f4 <test_2103>:
800043f4:	000011b7          	lui	gp,0x1
800043f8:	83718193          	addi	gp,gp,-1993 # 837 <_start-0x7ffff7c9>
800043fc:	00100093          	li	ra,1
80004400:	00109713          	slli	a4,ra,0x1
80004404:	00200393          	li	t2,2
80004408:	00770463          	beq	a4,t2,80004410 <test_2104>
8000440c:	4ac0406f          	j	800088b8 <fail>

80004410 <test_2104>:
80004410:	000011b7          	lui	gp,0x1
80004414:	83818193          	addi	gp,gp,-1992 # 838 <_start-0x7ffff7c8>
80004418:	00100093          	li	ra,1
8000441c:	00709713          	slli	a4,ra,0x7
80004420:	08000393          	li	t2,128
80004424:	00770463          	beq	a4,t2,8000442c <test_2105>
80004428:	4900406f          	j	800088b8 <fail>

8000442c <test_2105>:
8000442c:	000011b7          	lui	gp,0x1
80004430:	83918193          	addi	gp,gp,-1991 # 839 <_start-0x7ffff7c7>
80004434:	00100093          	li	ra,1
80004438:	00e09713          	slli	a4,ra,0xe
8000443c:	000043b7          	lui	t2,0x4
80004440:	00770463          	beq	a4,t2,80004448 <test_2106>
80004444:	4740406f          	j	800088b8 <fail>

80004448 <test_2106>:
80004448:	000011b7          	lui	gp,0x1
8000444c:	83a18193          	addi	gp,gp,-1990 # 83a <_start-0x7ffff7c6>
80004450:	00100093          	li	ra,1
80004454:	01f09713          	slli	a4,ra,0x1f
80004458:	800003b7          	lui	t2,0x80000
8000445c:	00770463          	beq	a4,t2,80004464 <test_2107>
80004460:	4580406f          	j	800088b8 <fail>

80004464 <test_2107>:
80004464:	000011b7          	lui	gp,0x1
80004468:	83b18193          	addi	gp,gp,-1989 # 83b <_start-0x7ffff7c5>
8000446c:	fff00093          	li	ra,-1
80004470:	00009713          	slli	a4,ra,0x0
80004474:	fff00393          	li	t2,-1
80004478:	00770463          	beq	a4,t2,80004480 <test_2108>
8000447c:	43c0406f          	j	800088b8 <fail>

80004480 <test_2108>:
80004480:	000011b7          	lui	gp,0x1
80004484:	83c18193          	addi	gp,gp,-1988 # 83c <_start-0x7ffff7c4>
80004488:	fff00093          	li	ra,-1
8000448c:	00109713          	slli	a4,ra,0x1
80004490:	ffe00393          	li	t2,-2
80004494:	00770463          	beq	a4,t2,8000449c <test_2109>
80004498:	4200406f          	j	800088b8 <fail>

8000449c <test_2109>:
8000449c:	000011b7          	lui	gp,0x1
800044a0:	83d18193          	addi	gp,gp,-1987 # 83d <_start-0x7ffff7c3>
800044a4:	fff00093          	li	ra,-1
800044a8:	00709713          	slli	a4,ra,0x7
800044ac:	f8000393          	li	t2,-128
800044b0:	00770463          	beq	a4,t2,800044b8 <test_2110>
800044b4:	4040406f          	j	800088b8 <fail>

800044b8 <test_2110>:
800044b8:	000011b7          	lui	gp,0x1
800044bc:	83e18193          	addi	gp,gp,-1986 # 83e <_start-0x7ffff7c2>
800044c0:	fff00093          	li	ra,-1
800044c4:	00e09713          	slli	a4,ra,0xe
800044c8:	ffffc3b7          	lui	t2,0xffffc
800044cc:	00770463          	beq	a4,t2,800044d4 <test_2111>
800044d0:	3e80406f          	j	800088b8 <fail>

800044d4 <test_2111>:
800044d4:	000011b7          	lui	gp,0x1
800044d8:	83f18193          	addi	gp,gp,-1985 # 83f <_start-0x7ffff7c1>
800044dc:	fff00093          	li	ra,-1
800044e0:	01f09713          	slli	a4,ra,0x1f
800044e4:	800003b7          	lui	t2,0x80000
800044e8:	00770463          	beq	a4,t2,800044f0 <test_2112>
800044ec:	3cc0406f          	j	800088b8 <fail>

800044f0 <test_2112>:
800044f0:	000011b7          	lui	gp,0x1
800044f4:	84018193          	addi	gp,gp,-1984 # 840 <_start-0x7ffff7c0>
800044f8:	212120b7          	lui	ra,0x21212
800044fc:	12108093          	addi	ra,ra,289 # 21212121 <_start-0x5edededf>
80004500:	00009713          	slli	a4,ra,0x0
80004504:	212123b7          	lui	t2,0x21212
80004508:	12138393          	addi	t2,t2,289 # 21212121 <_start-0x5edededf>
8000450c:	00770463          	beq	a4,t2,80004514 <test_2113>
80004510:	3a80406f          	j	800088b8 <fail>

80004514 <test_2113>:
80004514:	000011b7          	lui	gp,0x1
80004518:	84118193          	addi	gp,gp,-1983 # 841 <_start-0x7ffff7bf>
8000451c:	212120b7          	lui	ra,0x21212
80004520:	12108093          	addi	ra,ra,289 # 21212121 <_start-0x5edededf>
80004524:	00109713          	slli	a4,ra,0x1
80004528:	424243b7          	lui	t2,0x42424
8000452c:	24238393          	addi	t2,t2,578 # 42424242 <_start-0x3dbdbdbe>
80004530:	00770463          	beq	a4,t2,80004538 <test_2114>
80004534:	3840406f          	j	800088b8 <fail>

80004538 <test_2114>:
80004538:	000011b7          	lui	gp,0x1
8000453c:	84218193          	addi	gp,gp,-1982 # 842 <_start-0x7ffff7be>
80004540:	212120b7          	lui	ra,0x21212
80004544:	12108093          	addi	ra,ra,289 # 21212121 <_start-0x5edededf>
80004548:	00709713          	slli	a4,ra,0x7
8000454c:	909093b7          	lui	t2,0x90909
80004550:	08038393          	addi	t2,t2,128 # 90909080 <_end+0x108fefb0>
80004554:	00770463          	beq	a4,t2,8000455c <test_2115>
80004558:	3600406f          	j	800088b8 <fail>

8000455c <test_2115>:
8000455c:	000011b7          	lui	gp,0x1
80004560:	84318193          	addi	gp,gp,-1981 # 843 <_start-0x7ffff7bd>
80004564:	212120b7          	lui	ra,0x21212
80004568:	12108093          	addi	ra,ra,289 # 21212121 <_start-0x5edededf>
8000456c:	00e09713          	slli	a4,ra,0xe
80004570:	484843b7          	lui	t2,0x48484
80004574:	00770463          	beq	a4,t2,8000457c <test_2116>
80004578:	3400406f          	j	800088b8 <fail>

8000457c <test_2116>:
8000457c:	000011b7          	lui	gp,0x1
80004580:	84418193          	addi	gp,gp,-1980 # 844 <_start-0x7ffff7bc>
80004584:	212120b7          	lui	ra,0x21212
80004588:	12108093          	addi	ra,ra,289 # 21212121 <_start-0x5edededf>
8000458c:	01f09713          	slli	a4,ra,0x1f
80004590:	800003b7          	lui	t2,0x80000
80004594:	00770463          	beq	a4,t2,8000459c <test_2117>
80004598:	3200406f          	j	800088b8 <fail>

8000459c <test_2117>:
8000459c:	000011b7          	lui	gp,0x1
800045a0:	84518193          	addi	gp,gp,-1979 # 845 <_start-0x7ffff7bb>
800045a4:	00100093          	li	ra,1
800045a8:	00709093          	slli	ra,ra,0x7
800045ac:	08000393          	li	t2,128
800045b0:	00708463          	beq	ra,t2,800045b8 <test_2118>
800045b4:	3040406f          	j	800088b8 <fail>

800045b8 <test_2118>:
800045b8:	000011b7          	lui	gp,0x1
800045bc:	84618193          	addi	gp,gp,-1978 # 846 <_start-0x7ffff7ba>
800045c0:	00000213          	li	tp,0
800045c4:	00100093          	li	ra,1
800045c8:	00709713          	slli	a4,ra,0x7
800045cc:	00070313          	mv	t1,a4
800045d0:	00120213          	addi	tp,tp,1 # 1 <_start-0x7fffffff>
800045d4:	00200293          	li	t0,2
800045d8:	fe5216e3          	bne	tp,t0,800045c4 <test_2118+0xc>
800045dc:	08000393          	li	t2,128
800045e0:	00730463          	beq	t1,t2,800045e8 <test_2119>
800045e4:	2d40406f          	j	800088b8 <fail>

800045e8 <test_2119>:
800045e8:	000011b7          	lui	gp,0x1
800045ec:	84718193          	addi	gp,gp,-1977 # 847 <_start-0x7ffff7b9>
800045f0:	00000213          	li	tp,0
800045f4:	00100093          	li	ra,1
800045f8:	00e09713          	slli	a4,ra,0xe
800045fc:	00000013          	nop
80004600:	00070313          	mv	t1,a4
80004604:	00120213          	addi	tp,tp,1 # 1 <_start-0x7fffffff>
80004608:	00200293          	li	t0,2
8000460c:	fe5214e3          	bne	tp,t0,800045f4 <test_2119+0xc>
80004610:	000043b7          	lui	t2,0x4
80004614:	00730463          	beq	t1,t2,8000461c <test_2120>
80004618:	2a00406f          	j	800088b8 <fail>

8000461c <test_2120>:
8000461c:	000011b7          	lui	gp,0x1
80004620:	84818193          	addi	gp,gp,-1976 # 848 <_start-0x7ffff7b8>
80004624:	00000213          	li	tp,0
80004628:	00100093          	li	ra,1
8000462c:	01f09713          	slli	a4,ra,0x1f
80004630:	00000013          	nop
80004634:	00000013          	nop
80004638:	00070313          	mv	t1,a4
8000463c:	00120213          	addi	tp,tp,1 # 1 <_start-0x7fffffff>
80004640:	00200293          	li	t0,2
80004644:	fe5212e3          	bne	tp,t0,80004628 <test_2120+0xc>
80004648:	800003b7          	lui	t2,0x80000
8000464c:	00730463          	beq	t1,t2,80004654 <test_2121>
80004650:	2680406f          	j	800088b8 <fail>

80004654 <test_2121>:
80004654:	000011b7          	lui	gp,0x1
80004658:	84918193          	addi	gp,gp,-1975 # 849 <_start-0x7ffff7b7>
8000465c:	00000213          	li	tp,0
80004660:	00100093          	li	ra,1
80004664:	00709713          	slli	a4,ra,0x7
80004668:	00120213          	addi	tp,tp,1 # 1 <_start-0x7fffffff>
8000466c:	00200293          	li	t0,2
80004670:	fe5218e3          	bne	tp,t0,80004660 <test_2121+0xc>
80004674:	08000393          	li	t2,128
80004678:	00770463          	beq	a4,t2,80004680 <test_2122>
8000467c:	23c0406f          	j	800088b8 <fail>

80004680 <test_2122>:
80004680:	000011b7          	lui	gp,0x1
80004684:	84a18193          	addi	gp,gp,-1974 # 84a <_start-0x7ffff7b6>
80004688:	00000213          	li	tp,0
8000468c:	00100093          	li	ra,1
80004690:	00000013          	nop
80004694:	00e09713          	slli	a4,ra,0xe
80004698:	00120213          	addi	tp,tp,1 # 1 <_start-0x7fffffff>
8000469c:	00200293          	li	t0,2
800046a0:	fe5216e3          	bne	tp,t0,8000468c <test_2122+0xc>
800046a4:	000043b7          	lui	t2,0x4
800046a8:	00770463          	beq	a4,t2,800046b0 <test_2123>
800046ac:	20c0406f          	j	800088b8 <fail>

800046b0 <test_2123>:
800046b0:	000011b7          	lui	gp,0x1
800046b4:	84b18193          	addi	gp,gp,-1973 # 84b <_start-0x7ffff7b5>
800046b8:	00000213          	li	tp,0
800046bc:	00100093          	li	ra,1
800046c0:	00000013          	nop
800046c4:	00000013          	nop
800046c8:	01f09713          	slli	a4,ra,0x1f
800046cc:	00120213          	addi	tp,tp,1 # 1 <_start-0x7fffffff>
800046d0:	00200293          	li	t0,2
800046d4:	fe5214e3          	bne	tp,t0,800046bc <test_2123+0xc>
800046d8:	800003b7          	lui	t2,0x80000
800046dc:	00770463          	beq	a4,t2,800046e4 <test_2124>
800046e0:	1d80406f          	j	800088b8 <fail>

800046e4 <test_2124>:
800046e4:	000011b7          	lui	gp,0x1
800046e8:	84c18193          	addi	gp,gp,-1972 # 84c <_start-0x7ffff7b4>
800046ec:	01f01093          	slli	ra,zero,0x1f
800046f0:	00000393          	li	t2,0
800046f4:	00708463          	beq	ra,t2,800046fc <test_2125>
800046f8:	1c00406f          	j	800088b8 <fail>

800046fc <test_2125>:
800046fc:	000011b7          	lui	gp,0x1
80004700:	84d18193          	addi	gp,gp,-1971 # 84d <_start-0x7ffff7b3>
80004704:	02100093          	li	ra,33
80004708:	01409013          	slli	zero,ra,0x14
8000470c:	00000393          	li	t2,0
80004710:	00700463          	beq	zero,t2,80004718 <test_2202>
80004714:	1a40406f          	j	800088b8 <fail>

80004718 <test_2202>:
80004718:	000011b7          	lui	gp,0x1
8000471c:	89a18193          	addi	gp,gp,-1894 # 89a <_start-0x7ffff766>
80004720:	00000093          	li	ra,0
80004724:	00000113          	li	sp,0
80004728:	0020a733          	slt	a4,ra,sp
8000472c:	00000393          	li	t2,0
80004730:	00770463          	beq	a4,t2,80004738 <test_2203>
80004734:	1840406f          	j	800088b8 <fail>

80004738 <test_2203>:
80004738:	000011b7          	lui	gp,0x1
8000473c:	89b18193          	addi	gp,gp,-1893 # 89b <_start-0x7ffff765>
80004740:	00100093          	li	ra,1
80004744:	00100113          	li	sp,1
80004748:	0020a733          	slt	a4,ra,sp
8000474c:	00000393          	li	t2,0
80004750:	00770463          	beq	a4,t2,80004758 <test_2204>
80004754:	1640406f          	j	800088b8 <fail>

80004758 <test_2204>:
80004758:	000011b7          	lui	gp,0x1
8000475c:	89c18193          	addi	gp,gp,-1892 # 89c <_start-0x7ffff764>
80004760:	00300093          	li	ra,3
80004764:	00700113          	li	sp,7
80004768:	0020a733          	slt	a4,ra,sp
8000476c:	00100393          	li	t2,1
80004770:	00770463          	beq	a4,t2,80004778 <test_2205>
80004774:	1440406f          	j	800088b8 <fail>

80004778 <test_2205>:
80004778:	000011b7          	lui	gp,0x1
8000477c:	89d18193          	addi	gp,gp,-1891 # 89d <_start-0x7ffff763>
80004780:	00700093          	li	ra,7
80004784:	00300113          	li	sp,3
80004788:	0020a733          	slt	a4,ra,sp
8000478c:	00000393          	li	t2,0
80004790:	00770463          	beq	a4,t2,80004798 <test_2206>
80004794:	1240406f          	j	800088b8 <fail>

80004798 <test_2206>:
80004798:	000011b7          	lui	gp,0x1
8000479c:	89e18193          	addi	gp,gp,-1890 # 89e <_start-0x7ffff762>
800047a0:	00000093          	li	ra,0
800047a4:	ffff8137          	lui	sp,0xffff8
800047a8:	0020a733          	slt	a4,ra,sp
800047ac:	00000393          	li	t2,0
800047b0:	00770463          	beq	a4,t2,800047b8 <test_2207>
800047b4:	1040406f          	j	800088b8 <fail>

800047b8 <test_2207>:
800047b8:	000011b7          	lui	gp,0x1
800047bc:	89f18193          	addi	gp,gp,-1889 # 89f <_start-0x7ffff761>
800047c0:	800000b7          	lui	ra,0x80000
800047c4:	00000113          	li	sp,0
800047c8:	0020a733          	slt	a4,ra,sp
800047cc:	00100393          	li	t2,1
800047d0:	00770463          	beq	a4,t2,800047d8 <test_2208>
800047d4:	0e40406f          	j	800088b8 <fail>

800047d8 <test_2208>:
800047d8:	000011b7          	lui	gp,0x1
800047dc:	8a018193          	addi	gp,gp,-1888 # 8a0 <_start-0x7ffff760>
800047e0:	800000b7          	lui	ra,0x80000
800047e4:	ffff8137          	lui	sp,0xffff8
800047e8:	0020a733          	slt	a4,ra,sp
800047ec:	00100393          	li	t2,1
800047f0:	00770463          	beq	a4,t2,800047f8 <test_2209>
800047f4:	0c40406f          	j	800088b8 <fail>

800047f8 <test_2209>:
800047f8:	000011b7          	lui	gp,0x1
800047fc:	8a118193          	addi	gp,gp,-1887 # 8a1 <_start-0x7ffff75f>
80004800:	00000093          	li	ra,0
80004804:	00008137          	lui	sp,0x8
80004808:	fff10113          	addi	sp,sp,-1 # 7fff <_start-0x7fff8001>
8000480c:	0020a733          	slt	a4,ra,sp
80004810:	00100393          	li	t2,1
80004814:	00770463          	beq	a4,t2,8000481c <test_2210>
80004818:	0a00406f          	j	800088b8 <fail>

8000481c <test_2210>:
8000481c:	000011b7          	lui	gp,0x1
80004820:	8a218193          	addi	gp,gp,-1886 # 8a2 <_start-0x7ffff75e>
80004824:	800000b7          	lui	ra,0x80000
80004828:	fff08093          	addi	ra,ra,-1 # 7fffffff <_end+0xffff5f2f>
8000482c:	00000113          	li	sp,0
80004830:	0020a733          	slt	a4,ra,sp
80004834:	00000393          	li	t2,0
80004838:	00770463          	beq	a4,t2,80004840 <test_2211>
8000483c:	07c0406f          	j	800088b8 <fail>

80004840 <test_2211>:
80004840:	000011b7          	lui	gp,0x1
80004844:	8a318193          	addi	gp,gp,-1885 # 8a3 <_start-0x7ffff75d>
80004848:	800000b7          	lui	ra,0x80000
8000484c:	fff08093          	addi	ra,ra,-1 # 7fffffff <_end+0xffff5f2f>
80004850:	00008137          	lui	sp,0x8
80004854:	fff10113          	addi	sp,sp,-1 # 7fff <_start-0x7fff8001>
80004858:	0020a733          	slt	a4,ra,sp
8000485c:	00000393          	li	t2,0
80004860:	00770463          	beq	a4,t2,80004868 <test_2212>
80004864:	0540406f          	j	800088b8 <fail>

80004868 <test_2212>:
80004868:	000011b7          	lui	gp,0x1
8000486c:	8a418193          	addi	gp,gp,-1884 # 8a4 <_start-0x7ffff75c>
80004870:	800000b7          	lui	ra,0x80000
80004874:	00008137          	lui	sp,0x8
80004878:	fff10113          	addi	sp,sp,-1 # 7fff <_start-0x7fff8001>
8000487c:	0020a733          	slt	a4,ra,sp
80004880:	00100393          	li	t2,1
80004884:	00770463          	beq	a4,t2,8000488c <test_2213>
80004888:	0300406f          	j	800088b8 <fail>

8000488c <test_2213>:
8000488c:	000011b7          	lui	gp,0x1
80004890:	8a518193          	addi	gp,gp,-1883 # 8a5 <_start-0x7ffff75b>
80004894:	800000b7          	lui	ra,0x80000
80004898:	fff08093          	addi	ra,ra,-1 # 7fffffff <_end+0xffff5f2f>
8000489c:	ffff8137          	lui	sp,0xffff8
800048a0:	0020a733          	slt	a4,ra,sp
800048a4:	00000393          	li	t2,0
800048a8:	00770463          	beq	a4,t2,800048b0 <test_2214>
800048ac:	00c0406f          	j	800088b8 <fail>

800048b0 <test_2214>:
800048b0:	000011b7          	lui	gp,0x1
800048b4:	8a618193          	addi	gp,gp,-1882 # 8a6 <_start-0x7ffff75a>
800048b8:	00000093          	li	ra,0
800048bc:	fff00113          	li	sp,-1
800048c0:	0020a733          	slt	a4,ra,sp
800048c4:	00000393          	li	t2,0
800048c8:	00770463          	beq	a4,t2,800048d0 <test_2215>
800048cc:	7ed0306f          	j	800088b8 <fail>

800048d0 <test_2215>:
800048d0:	000011b7          	lui	gp,0x1
800048d4:	8a718193          	addi	gp,gp,-1881 # 8a7 <_start-0x7ffff759>
800048d8:	fff00093          	li	ra,-1
800048dc:	00100113          	li	sp,1
800048e0:	0020a733          	slt	a4,ra,sp
800048e4:	00100393          	li	t2,1
800048e8:	00770463          	beq	a4,t2,800048f0 <test_2216>
800048ec:	7cd0306f          	j	800088b8 <fail>

800048f0 <test_2216>:
800048f0:	000011b7          	lui	gp,0x1
800048f4:	8a818193          	addi	gp,gp,-1880 # 8a8 <_start-0x7ffff758>
800048f8:	fff00093          	li	ra,-1
800048fc:	fff00113          	li	sp,-1
80004900:	0020a733          	slt	a4,ra,sp
80004904:	00000393          	li	t2,0
80004908:	00770463          	beq	a4,t2,80004910 <test_2217>
8000490c:	7ad0306f          	j	800088b8 <fail>

80004910 <test_2217>:
80004910:	000011b7          	lui	gp,0x1
80004914:	8a918193          	addi	gp,gp,-1879 # 8a9 <_start-0x7ffff757>
80004918:	00e00093          	li	ra,14
8000491c:	00d00113          	li	sp,13
80004920:	0020a0b3          	slt	ra,ra,sp
80004924:	00000393          	li	t2,0
80004928:	00708463          	beq	ra,t2,80004930 <test_2218>
8000492c:	78d0306f          	j	800088b8 <fail>

80004930 <test_2218>:
80004930:	000011b7          	lui	gp,0x1
80004934:	8aa18193          	addi	gp,gp,-1878 # 8aa <_start-0x7ffff756>
80004938:	00b00093          	li	ra,11
8000493c:	00d00113          	li	sp,13
80004940:	0020a133          	slt	sp,ra,sp
80004944:	00100393          	li	t2,1
80004948:	00710463          	beq	sp,t2,80004950 <test_2219>
8000494c:	76d0306f          	j	800088b8 <fail>

80004950 <test_2219>:
80004950:	000011b7          	lui	gp,0x1
80004954:	8ab18193          	addi	gp,gp,-1877 # 8ab <_start-0x7ffff755>
80004958:	00d00093          	li	ra,13
8000495c:	0010a0b3          	slt	ra,ra,ra
80004960:	00000393          	li	t2,0
80004964:	00708463          	beq	ra,t2,8000496c <test_2220>
80004968:	7510306f          	j	800088b8 <fail>

8000496c <test_2220>:
8000496c:	000011b7          	lui	gp,0x1
80004970:	8ac18193          	addi	gp,gp,-1876 # 8ac <_start-0x7ffff754>
80004974:	00000213          	li	tp,0
80004978:	00b00093          	li	ra,11
8000497c:	00d00113          	li	sp,13
80004980:	0020a733          	slt	a4,ra,sp
80004984:	00070313          	mv	t1,a4
80004988:	00120213          	addi	tp,tp,1 # 1 <_start-0x7fffffff>
8000498c:	00200293          	li	t0,2
80004990:	fe5214e3          	bne	tp,t0,80004978 <test_2220+0xc>
80004994:	00100393          	li	t2,1
80004998:	00730463          	beq	t1,t2,800049a0 <test_2221>
8000499c:	71d0306f          	j	800088b8 <fail>

800049a0 <test_2221>:
800049a0:	000011b7          	lui	gp,0x1
800049a4:	8ad18193          	addi	gp,gp,-1875 # 8ad <_start-0x7ffff753>
800049a8:	00000213          	li	tp,0
800049ac:	00e00093          	li	ra,14
800049b0:	00d00113          	li	sp,13
800049b4:	0020a733          	slt	a4,ra,sp
800049b8:	00000013          	nop
800049bc:	00070313          	mv	t1,a4
800049c0:	00120213          	addi	tp,tp,1 # 1 <_start-0x7fffffff>
800049c4:	00200293          	li	t0,2
800049c8:	fe5212e3          	bne	tp,t0,800049ac <test_2221+0xc>
800049cc:	00000393          	li	t2,0
800049d0:	00730463          	beq	t1,t2,800049d8 <test_2222>
800049d4:	6e50306f          	j	800088b8 <fail>

800049d8 <test_2222>:
800049d8:	000011b7          	lui	gp,0x1
800049dc:	8ae18193          	addi	gp,gp,-1874 # 8ae <_start-0x7ffff752>
800049e0:	00000213          	li	tp,0
800049e4:	00c00093          	li	ra,12
800049e8:	00d00113          	li	sp,13
800049ec:	0020a733          	slt	a4,ra,sp
800049f0:	00000013          	nop
800049f4:	00000013          	nop
800049f8:	00070313          	mv	t1,a4
800049fc:	00120213          	addi	tp,tp,1 # 1 <_start-0x7fffffff>
80004a00:	00200293          	li	t0,2
80004a04:	fe5210e3          	bne	tp,t0,800049e4 <test_2222+0xc>
80004a08:	00100393          	li	t2,1
80004a0c:	00730463          	beq	t1,t2,80004a14 <test_2223>
80004a10:	6a90306f          	j	800088b8 <fail>

80004a14 <test_2223>:
80004a14:	000011b7          	lui	gp,0x1
80004a18:	8af18193          	addi	gp,gp,-1873 # 8af <_start-0x7ffff751>
80004a1c:	00000213          	li	tp,0
80004a20:	00e00093          	li	ra,14
80004a24:	00d00113          	li	sp,13
80004a28:	0020a733          	slt	a4,ra,sp
80004a2c:	00120213          	addi	tp,tp,1 # 1 <_start-0x7fffffff>
80004a30:	00200293          	li	t0,2
80004a34:	fe5216e3          	bne	tp,t0,80004a20 <test_2223+0xc>
80004a38:	00000393          	li	t2,0
80004a3c:	00770463          	beq	a4,t2,80004a44 <test_2224>
80004a40:	6790306f          	j	800088b8 <fail>

80004a44 <test_2224>:
80004a44:	000011b7          	lui	gp,0x1
80004a48:	8b018193          	addi	gp,gp,-1872 # 8b0 <_start-0x7ffff750>
80004a4c:	00000213          	li	tp,0
80004a50:	00b00093          	li	ra,11
80004a54:	00d00113          	li	sp,13
80004a58:	00000013          	nop
80004a5c:	0020a733          	slt	a4,ra,sp
80004a60:	00120213          	addi	tp,tp,1 # 1 <_start-0x7fffffff>
80004a64:	00200293          	li	t0,2
80004a68:	fe5214e3          	bne	tp,t0,80004a50 <test_2224+0xc>
80004a6c:	00100393          	li	t2,1
80004a70:	00770463          	beq	a4,t2,80004a78 <test_2225>
80004a74:	6450306f          	j	800088b8 <fail>

80004a78 <test_2225>:
80004a78:	000011b7          	lui	gp,0x1
80004a7c:	8b118193          	addi	gp,gp,-1871 # 8b1 <_start-0x7ffff74f>
80004a80:	00000213          	li	tp,0
80004a84:	00f00093          	li	ra,15
80004a88:	00d00113          	li	sp,13
80004a8c:	00000013          	nop
80004a90:	00000013          	nop
80004a94:	0020a733          	slt	a4,ra,sp
80004a98:	00120213          	addi	tp,tp,1 # 1 <_start-0x7fffffff>
80004a9c:	00200293          	li	t0,2
80004aa0:	fe5212e3          	bne	tp,t0,80004a84 <test_2225+0xc>
80004aa4:	00000393          	li	t2,0
80004aa8:	00770463          	beq	a4,t2,80004ab0 <test_2226>
80004aac:	60d0306f          	j	800088b8 <fail>

80004ab0 <test_2226>:
80004ab0:	000011b7          	lui	gp,0x1
80004ab4:	8b218193          	addi	gp,gp,-1870 # 8b2 <_start-0x7ffff74e>
80004ab8:	00000213          	li	tp,0
80004abc:	00a00093          	li	ra,10
80004ac0:	00000013          	nop
80004ac4:	00d00113          	li	sp,13
80004ac8:	0020a733          	slt	a4,ra,sp
80004acc:	00120213          	addi	tp,tp,1 # 1 <_start-0x7fffffff>
80004ad0:	00200293          	li	t0,2
80004ad4:	fe5214e3          	bne	tp,t0,80004abc <test_2226+0xc>
80004ad8:	00100393          	li	t2,1
80004adc:	00770463          	beq	a4,t2,80004ae4 <test_2227>
80004ae0:	5d90306f          	j	800088b8 <fail>

80004ae4 <test_2227>:
80004ae4:	000011b7          	lui	gp,0x1
80004ae8:	8b318193          	addi	gp,gp,-1869 # 8b3 <_start-0x7ffff74d>
80004aec:	00000213          	li	tp,0
80004af0:	01000093          	li	ra,16
80004af4:	00000013          	nop
80004af8:	00d00113          	li	sp,13
80004afc:	00000013          	nop
80004b00:	0020a733          	slt	a4,ra,sp
80004b04:	00120213          	addi	tp,tp,1 # 1 <_start-0x7fffffff>
80004b08:	00200293          	li	t0,2
80004b0c:	fe5212e3          	bne	tp,t0,80004af0 <test_2227+0xc>
80004b10:	00000393          	li	t2,0
80004b14:	00770463          	beq	a4,t2,80004b1c <test_2228>
80004b18:	5a10306f          	j	800088b8 <fail>

80004b1c <test_2228>:
80004b1c:	000011b7          	lui	gp,0x1
80004b20:	8b418193          	addi	gp,gp,-1868 # 8b4 <_start-0x7ffff74c>
80004b24:	00000213          	li	tp,0
80004b28:	00900093          	li	ra,9
80004b2c:	00000013          	nop
80004b30:	00000013          	nop
80004b34:	00d00113          	li	sp,13
80004b38:	0020a733          	slt	a4,ra,sp
80004b3c:	00120213          	addi	tp,tp,1 # 1 <_start-0x7fffffff>
80004b40:	00200293          	li	t0,2
80004b44:	fe5212e3          	bne	tp,t0,80004b28 <test_2228+0xc>
80004b48:	00100393          	li	t2,1
80004b4c:	00770463          	beq	a4,t2,80004b54 <test_2229>
80004b50:	5690306f          	j	800088b8 <fail>

80004b54 <test_2229>:
80004b54:	000011b7          	lui	gp,0x1
80004b58:	8b518193          	addi	gp,gp,-1867 # 8b5 <_start-0x7ffff74b>
80004b5c:	00000213          	li	tp,0
80004b60:	00d00113          	li	sp,13
80004b64:	01100093          	li	ra,17
80004b68:	0020a733          	slt	a4,ra,sp
80004b6c:	00120213          	addi	tp,tp,1 # 1 <_start-0x7fffffff>
80004b70:	00200293          	li	t0,2
80004b74:	fe5216e3          	bne	tp,t0,80004b60 <test_2229+0xc>
80004b78:	00000393          	li	t2,0
80004b7c:	00770463          	beq	a4,t2,80004b84 <test_2230>
80004b80:	5390306f          	j	800088b8 <fail>

80004b84 <test_2230>:
80004b84:	000011b7          	lui	gp,0x1
80004b88:	8b618193          	addi	gp,gp,-1866 # 8b6 <_start-0x7ffff74a>
80004b8c:	00000213          	li	tp,0
80004b90:	00d00113          	li	sp,13
80004b94:	00800093          	li	ra,8
80004b98:	00000013          	nop
80004b9c:	0020a733          	slt	a4,ra,sp
80004ba0:	00120213          	addi	tp,tp,1 # 1 <_start-0x7fffffff>
80004ba4:	00200293          	li	t0,2
80004ba8:	fe5214e3          	bne	tp,t0,80004b90 <test_2230+0xc>
80004bac:	00100393          	li	t2,1
80004bb0:	00770463          	beq	a4,t2,80004bb8 <test_2231>
80004bb4:	5050306f          	j	800088b8 <fail>

80004bb8 <test_2231>:
80004bb8:	000011b7          	lui	gp,0x1
80004bbc:	8b718193          	addi	gp,gp,-1865 # 8b7 <_start-0x7ffff749>
80004bc0:	00000213          	li	tp,0
80004bc4:	00d00113          	li	sp,13
80004bc8:	01200093          	li	ra,18
80004bcc:	00000013          	nop
80004bd0:	00000013          	nop
80004bd4:	0020a733          	slt	a4,ra,sp
80004bd8:	00120213          	addi	tp,tp,1 # 1 <_start-0x7fffffff>
80004bdc:	00200293          	li	t0,2
80004be0:	fe5212e3          	bne	tp,t0,80004bc4 <test_2231+0xc>
80004be4:	00000393          	li	t2,0
80004be8:	00770463          	beq	a4,t2,80004bf0 <test_2232>
80004bec:	4cd0306f          	j	800088b8 <fail>

80004bf0 <test_2232>:
80004bf0:	000011b7          	lui	gp,0x1
80004bf4:	8b818193          	addi	gp,gp,-1864 # 8b8 <_start-0x7ffff748>
80004bf8:	00000213          	li	tp,0
80004bfc:	00d00113          	li	sp,13
80004c00:	00000013          	nop
80004c04:	00700093          	li	ra,7
80004c08:	0020a733          	slt	a4,ra,sp
80004c0c:	00120213          	addi	tp,tp,1 # 1 <_start-0x7fffffff>
80004c10:	00200293          	li	t0,2
80004c14:	fe5214e3          	bne	tp,t0,80004bfc <test_2232+0xc>
80004c18:	00100393          	li	t2,1
80004c1c:	00770463          	beq	a4,t2,80004c24 <test_2233>
80004c20:	4990306f          	j	800088b8 <fail>

80004c24 <test_2233>:
80004c24:	000011b7          	lui	gp,0x1
80004c28:	8b918193          	addi	gp,gp,-1863 # 8b9 <_start-0x7ffff747>
80004c2c:	00000213          	li	tp,0
80004c30:	00d00113          	li	sp,13
80004c34:	00000013          	nop
80004c38:	01300093          	li	ra,19
80004c3c:	00000013          	nop
80004c40:	0020a733          	slt	a4,ra,sp
80004c44:	00120213          	addi	tp,tp,1 # 1 <_start-0x7fffffff>
80004c48:	00200293          	li	t0,2
80004c4c:	fe5212e3          	bne	tp,t0,80004c30 <test_2233+0xc>
80004c50:	00000393          	li	t2,0
80004c54:	00770463          	beq	a4,t2,80004c5c <test_2234>
80004c58:	4610306f          	j	800088b8 <fail>

80004c5c <test_2234>:
80004c5c:	000011b7          	lui	gp,0x1
80004c60:	8ba18193          	addi	gp,gp,-1862 # 8ba <_start-0x7ffff746>
80004c64:	00000213          	li	tp,0
80004c68:	00d00113          	li	sp,13
80004c6c:	00000013          	nop
80004c70:	00000013          	nop
80004c74:	00600093          	li	ra,6
80004c78:	0020a733          	slt	a4,ra,sp
80004c7c:	00120213          	addi	tp,tp,1 # 1 <_start-0x7fffffff>
80004c80:	00200293          	li	t0,2
80004c84:	fe5212e3          	bne	tp,t0,80004c68 <test_2234+0xc>
80004c88:	00100393          	li	t2,1
80004c8c:	00770463          	beq	a4,t2,80004c94 <test_2235>
80004c90:	4290306f          	j	800088b8 <fail>

80004c94 <test_2235>:
80004c94:	000011b7          	lui	gp,0x1
80004c98:	8bb18193          	addi	gp,gp,-1861 # 8bb <_start-0x7ffff745>
80004c9c:	fff00093          	li	ra,-1
80004ca0:	00102133          	sgtz	sp,ra
80004ca4:	00000393          	li	t2,0
80004ca8:	00710463          	beq	sp,t2,80004cb0 <test_2236>
80004cac:	40d0306f          	j	800088b8 <fail>

80004cb0 <test_2236>:
80004cb0:	000011b7          	lui	gp,0x1
80004cb4:	8bc18193          	addi	gp,gp,-1860 # 8bc <_start-0x7ffff744>
80004cb8:	fff00093          	li	ra,-1
80004cbc:	0000a133          	sltz	sp,ra
80004cc0:	00100393          	li	t2,1
80004cc4:	00710463          	beq	sp,t2,80004ccc <test_2237>
80004cc8:	3f10306f          	j	800088b8 <fail>

80004ccc <test_2237>:
80004ccc:	000011b7          	lui	gp,0x1
80004cd0:	8bd18193          	addi	gp,gp,-1859 # 8bd <_start-0x7ffff743>
80004cd4:	000020b3          	sltz	ra,zero
80004cd8:	00000393          	li	t2,0
80004cdc:	00708463          	beq	ra,t2,80004ce4 <test_2238>
80004ce0:	3d90306f          	j	800088b8 <fail>

80004ce4 <test_2238>:
80004ce4:	000011b7          	lui	gp,0x1
80004ce8:	8be18193          	addi	gp,gp,-1858 # 8be <_start-0x7ffff742>
80004cec:	01000093          	li	ra,16
80004cf0:	01e00113          	li	sp,30
80004cf4:	0020a033          	slt	zero,ra,sp
80004cf8:	00000393          	li	t2,0
80004cfc:	00700463          	beq	zero,t2,80004d04 <test_2302>
80004d00:	3b90306f          	j	800088b8 <fail>

80004d04 <test_2302>:
80004d04:	000011b7          	lui	gp,0x1
80004d08:	8fe18193          	addi	gp,gp,-1794 # 8fe <_start-0x7ffff702>
80004d0c:	00000093          	li	ra,0
80004d10:	0000a713          	slti	a4,ra,0
80004d14:	00000393          	li	t2,0
80004d18:	00770463          	beq	a4,t2,80004d20 <test_2303>
80004d1c:	39d0306f          	j	800088b8 <fail>

80004d20 <test_2303>:
80004d20:	000011b7          	lui	gp,0x1
80004d24:	8ff18193          	addi	gp,gp,-1793 # 8ff <_start-0x7ffff701>
80004d28:	00100093          	li	ra,1
80004d2c:	0010a713          	slti	a4,ra,1
80004d30:	00000393          	li	t2,0
80004d34:	00770463          	beq	a4,t2,80004d3c <test_2304>
80004d38:	3810306f          	j	800088b8 <fail>

80004d3c <test_2304>:
80004d3c:	000011b7          	lui	gp,0x1
80004d40:	90018193          	addi	gp,gp,-1792 # 900 <_start-0x7ffff700>
80004d44:	00300093          	li	ra,3
80004d48:	0070a713          	slti	a4,ra,7
80004d4c:	00100393          	li	t2,1
80004d50:	00770463          	beq	a4,t2,80004d58 <test_2305>
80004d54:	3650306f          	j	800088b8 <fail>

80004d58 <test_2305>:
80004d58:	000011b7          	lui	gp,0x1
80004d5c:	90118193          	addi	gp,gp,-1791 # 901 <_start-0x7ffff6ff>
80004d60:	00700093          	li	ra,7
80004d64:	0030a713          	slti	a4,ra,3
80004d68:	00000393          	li	t2,0
80004d6c:	00770463          	beq	a4,t2,80004d74 <test_2306>
80004d70:	3490306f          	j	800088b8 <fail>

80004d74 <test_2306>:
80004d74:	000011b7          	lui	gp,0x1
80004d78:	90218193          	addi	gp,gp,-1790 # 902 <_start-0x7ffff6fe>
80004d7c:	00000093          	li	ra,0
80004d80:	8000a713          	slti	a4,ra,-2048
80004d84:	00000393          	li	t2,0
80004d88:	00770463          	beq	a4,t2,80004d90 <test_2307>
80004d8c:	32d0306f          	j	800088b8 <fail>

80004d90 <test_2307>:
80004d90:	000011b7          	lui	gp,0x1
80004d94:	90318193          	addi	gp,gp,-1789 # 903 <_start-0x7ffff6fd>
80004d98:	800000b7          	lui	ra,0x80000
80004d9c:	0000a713          	slti	a4,ra,0
80004da0:	00100393          	li	t2,1
80004da4:	00770463          	beq	a4,t2,80004dac <test_2308>
80004da8:	3110306f          	j	800088b8 <fail>

80004dac <test_2308>:
80004dac:	000011b7          	lui	gp,0x1
80004db0:	90418193          	addi	gp,gp,-1788 # 904 <_start-0x7ffff6fc>
80004db4:	800000b7          	lui	ra,0x80000
80004db8:	8000a713          	slti	a4,ra,-2048
80004dbc:	00100393          	li	t2,1
80004dc0:	00770463          	beq	a4,t2,80004dc8 <test_2309>
80004dc4:	2f50306f          	j	800088b8 <fail>

80004dc8 <test_2309>:
80004dc8:	000011b7          	lui	gp,0x1
80004dcc:	90518193          	addi	gp,gp,-1787 # 905 <_start-0x7ffff6fb>
80004dd0:	00000093          	li	ra,0
80004dd4:	7ff0a713          	slti	a4,ra,2047
80004dd8:	00100393          	li	t2,1
80004ddc:	00770463          	beq	a4,t2,80004de4 <test_2310>
80004de0:	2d90306f          	j	800088b8 <fail>

80004de4 <test_2310>:
80004de4:	000011b7          	lui	gp,0x1
80004de8:	90618193          	addi	gp,gp,-1786 # 906 <_start-0x7ffff6fa>
80004dec:	800000b7          	lui	ra,0x80000
80004df0:	fff08093          	addi	ra,ra,-1 # 7fffffff <_end+0xffff5f2f>
80004df4:	0000a713          	slti	a4,ra,0
80004df8:	00000393          	li	t2,0
80004dfc:	00770463          	beq	a4,t2,80004e04 <test_2311>
80004e00:	2b90306f          	j	800088b8 <fail>

80004e04 <test_2311>:
80004e04:	000011b7          	lui	gp,0x1
80004e08:	90718193          	addi	gp,gp,-1785 # 907 <_start-0x7ffff6f9>
80004e0c:	800000b7          	lui	ra,0x80000
80004e10:	fff08093          	addi	ra,ra,-1 # 7fffffff <_end+0xffff5f2f>
80004e14:	7ff0a713          	slti	a4,ra,2047
80004e18:	00000393          	li	t2,0
80004e1c:	00770463          	beq	a4,t2,80004e24 <test_2312>
80004e20:	2990306f          	j	800088b8 <fail>

80004e24 <test_2312>:
80004e24:	000011b7          	lui	gp,0x1
80004e28:	90818193          	addi	gp,gp,-1784 # 908 <_start-0x7ffff6f8>
80004e2c:	800000b7          	lui	ra,0x80000
80004e30:	7ff0a713          	slti	a4,ra,2047
80004e34:	00100393          	li	t2,1
80004e38:	00770463          	beq	a4,t2,80004e40 <test_2313>
80004e3c:	27d0306f          	j	800088b8 <fail>

80004e40 <test_2313>:
80004e40:	000011b7          	lui	gp,0x1
80004e44:	90918193          	addi	gp,gp,-1783 # 909 <_start-0x7ffff6f7>
80004e48:	800000b7          	lui	ra,0x80000
80004e4c:	fff08093          	addi	ra,ra,-1 # 7fffffff <_end+0xffff5f2f>
80004e50:	8000a713          	slti	a4,ra,-2048
80004e54:	00000393          	li	t2,0
80004e58:	00770463          	beq	a4,t2,80004e60 <test_2314>
80004e5c:	25d0306f          	j	800088b8 <fail>

80004e60 <test_2314>:
80004e60:	000011b7          	lui	gp,0x1
80004e64:	90a18193          	addi	gp,gp,-1782 # 90a <_start-0x7ffff6f6>
80004e68:	00000093          	li	ra,0
80004e6c:	fff0a713          	slti	a4,ra,-1
80004e70:	00000393          	li	t2,0
80004e74:	00770463          	beq	a4,t2,80004e7c <test_2315>
80004e78:	2410306f          	j	800088b8 <fail>

80004e7c <test_2315>:
80004e7c:	000011b7          	lui	gp,0x1
80004e80:	90b18193          	addi	gp,gp,-1781 # 90b <_start-0x7ffff6f5>
80004e84:	fff00093          	li	ra,-1
80004e88:	0010a713          	slti	a4,ra,1
80004e8c:	00100393          	li	t2,1
80004e90:	00770463          	beq	a4,t2,80004e98 <test_2316>
80004e94:	2250306f          	j	800088b8 <fail>

80004e98 <test_2316>:
80004e98:	000011b7          	lui	gp,0x1
80004e9c:	90c18193          	addi	gp,gp,-1780 # 90c <_start-0x7ffff6f4>
80004ea0:	fff00093          	li	ra,-1
80004ea4:	fff0a713          	slti	a4,ra,-1
80004ea8:	00000393          	li	t2,0
80004eac:	00770463          	beq	a4,t2,80004eb4 <test_2317>
80004eb0:	2090306f          	j	800088b8 <fail>

80004eb4 <test_2317>:
80004eb4:	000011b7          	lui	gp,0x1
80004eb8:	90d18193          	addi	gp,gp,-1779 # 90d <_start-0x7ffff6f3>
80004ebc:	00b00093          	li	ra,11
80004ec0:	00d0a093          	slti	ra,ra,13
80004ec4:	00100393          	li	t2,1
80004ec8:	00708463          	beq	ra,t2,80004ed0 <test_2318>
80004ecc:	1ed0306f          	j	800088b8 <fail>

80004ed0 <test_2318>:
80004ed0:	000011b7          	lui	gp,0x1
80004ed4:	90e18193          	addi	gp,gp,-1778 # 90e <_start-0x7ffff6f2>
80004ed8:	00000213          	li	tp,0
80004edc:	00f00093          	li	ra,15
80004ee0:	00a0a713          	slti	a4,ra,10
80004ee4:	00070313          	mv	t1,a4
80004ee8:	00120213          	addi	tp,tp,1 # 1 <_start-0x7fffffff>
80004eec:	00200293          	li	t0,2
80004ef0:	fe5216e3          	bne	tp,t0,80004edc <test_2318+0xc>
80004ef4:	00000393          	li	t2,0
80004ef8:	00730463          	beq	t1,t2,80004f00 <test_2319>
80004efc:	1bd0306f          	j	800088b8 <fail>

80004f00 <test_2319>:
80004f00:	000011b7          	lui	gp,0x1
80004f04:	90f18193          	addi	gp,gp,-1777 # 90f <_start-0x7ffff6f1>
80004f08:	00000213          	li	tp,0
80004f0c:	00a00093          	li	ra,10
80004f10:	0100a713          	slti	a4,ra,16
80004f14:	00000013          	nop
80004f18:	00070313          	mv	t1,a4
80004f1c:	00120213          	addi	tp,tp,1 # 1 <_start-0x7fffffff>
80004f20:	00200293          	li	t0,2
80004f24:	fe5214e3          	bne	tp,t0,80004f0c <test_2319+0xc>
80004f28:	00100393          	li	t2,1
80004f2c:	00730463          	beq	t1,t2,80004f34 <test_2320>
80004f30:	1890306f          	j	800088b8 <fail>

80004f34 <test_2320>:
80004f34:	000011b7          	lui	gp,0x1
80004f38:	91018193          	addi	gp,gp,-1776 # 910 <_start-0x7ffff6f0>
80004f3c:	00000213          	li	tp,0
80004f40:	01000093          	li	ra,16
80004f44:	0090a713          	slti	a4,ra,9
80004f48:	00000013          	nop
80004f4c:	00000013          	nop
80004f50:	00070313          	mv	t1,a4
80004f54:	00120213          	addi	tp,tp,1 # 1 <_start-0x7fffffff>
80004f58:	00200293          	li	t0,2
80004f5c:	fe5212e3          	bne	tp,t0,80004f40 <test_2320+0xc>
80004f60:	00000393          	li	t2,0
80004f64:	00730463          	beq	t1,t2,80004f6c <test_2321>
80004f68:	1510306f          	j	800088b8 <fail>

80004f6c <test_2321>:
80004f6c:	000011b7          	lui	gp,0x1
80004f70:	91118193          	addi	gp,gp,-1775 # 911 <_start-0x7ffff6ef>
80004f74:	00000213          	li	tp,0
80004f78:	00b00093          	li	ra,11
80004f7c:	00f0a713          	slti	a4,ra,15
80004f80:	00120213          	addi	tp,tp,1 # 1 <_start-0x7fffffff>
80004f84:	00200293          	li	t0,2
80004f88:	fe5218e3          	bne	tp,t0,80004f78 <test_2321+0xc>
80004f8c:	00100393          	li	t2,1
80004f90:	00770463          	beq	a4,t2,80004f98 <test_2322>
80004f94:	1250306f          	j	800088b8 <fail>

80004f98 <test_2322>:
80004f98:	000011b7          	lui	gp,0x1
80004f9c:	91218193          	addi	gp,gp,-1774 # 912 <_start-0x7ffff6ee>
80004fa0:	00000213          	li	tp,0
80004fa4:	01100093          	li	ra,17
80004fa8:	00000013          	nop
80004fac:	0080a713          	slti	a4,ra,8
80004fb0:	00120213          	addi	tp,tp,1 # 1 <_start-0x7fffffff>
80004fb4:	00200293          	li	t0,2
80004fb8:	fe5216e3          	bne	tp,t0,80004fa4 <test_2322+0xc>
80004fbc:	00000393          	li	t2,0
80004fc0:	00770463          	beq	a4,t2,80004fc8 <test_2323>
80004fc4:	0f50306f          	j	800088b8 <fail>

80004fc8 <test_2323>:
80004fc8:	000011b7          	lui	gp,0x1
80004fcc:	91318193          	addi	gp,gp,-1773 # 913 <_start-0x7ffff6ed>
80004fd0:	00000213          	li	tp,0
80004fd4:	00c00093          	li	ra,12
80004fd8:	00000013          	nop
80004fdc:	00000013          	nop
80004fe0:	00e0a713          	slti	a4,ra,14
80004fe4:	00120213          	addi	tp,tp,1 # 1 <_start-0x7fffffff>
80004fe8:	00200293          	li	t0,2
80004fec:	fe5214e3          	bne	tp,t0,80004fd4 <test_2323+0xc>
80004ff0:	00100393          	li	t2,1
80004ff4:	00770463          	beq	a4,t2,80004ffc <test_2324>
80004ff8:	0c10306f          	j	800088b8 <fail>

80004ffc <test_2324>:
80004ffc:	000011b7          	lui	gp,0x1
80005000:	91418193          	addi	gp,gp,-1772 # 914 <_start-0x7ffff6ec>
80005004:	fff02093          	slti	ra,zero,-1
80005008:	00000393          	li	t2,0
8000500c:	00708463          	beq	ra,t2,80005014 <test_2325>
80005010:	0a90306f          	j	800088b8 <fail>

80005014 <test_2325>:
80005014:	000011b7          	lui	gp,0x1
80005018:	91518193          	addi	gp,gp,-1771 # 915 <_start-0x7ffff6eb>
8000501c:	00ff00b7          	lui	ra,0xff0
80005020:	0ff08093          	addi	ra,ra,255 # ff00ff <_start-0x7f00ff01>
80005024:	fff0a013          	slti	zero,ra,-1
80005028:	00000393          	li	t2,0
8000502c:	00700463          	beq	zero,t2,80005034 <test_2402>
80005030:	0890306f          	j	800088b8 <fail>

80005034 <test_2402>:
80005034:	000011b7          	lui	gp,0x1
80005038:	96218193          	addi	gp,gp,-1694 # 962 <_start-0x7ffff69e>
8000503c:	00000093          	li	ra,0
80005040:	00000113          	li	sp,0
80005044:	0020b733          	sltu	a4,ra,sp
80005048:	00000393          	li	t2,0
8000504c:	00770463          	beq	a4,t2,80005054 <test_2403>
80005050:	0690306f          	j	800088b8 <fail>

80005054 <test_2403>:
80005054:	000011b7          	lui	gp,0x1
80005058:	96318193          	addi	gp,gp,-1693 # 963 <_start-0x7ffff69d>
8000505c:	00100093          	li	ra,1
80005060:	00100113          	li	sp,1
80005064:	0020b733          	sltu	a4,ra,sp
80005068:	00000393          	li	t2,0
8000506c:	00770463          	beq	a4,t2,80005074 <test_2404>
80005070:	0490306f          	j	800088b8 <fail>

80005074 <test_2404>:
80005074:	000011b7          	lui	gp,0x1
80005078:	96418193          	addi	gp,gp,-1692 # 964 <_start-0x7ffff69c>
8000507c:	00300093          	li	ra,3
80005080:	00700113          	li	sp,7
80005084:	0020b733          	sltu	a4,ra,sp
80005088:	00100393          	li	t2,1
8000508c:	00770463          	beq	a4,t2,80005094 <test_2405>
80005090:	0290306f          	j	800088b8 <fail>

80005094 <test_2405>:
80005094:	000011b7          	lui	gp,0x1
80005098:	96518193          	addi	gp,gp,-1691 # 965 <_start-0x7ffff69b>
8000509c:	00700093          	li	ra,7
800050a0:	00300113          	li	sp,3
800050a4:	0020b733          	sltu	a4,ra,sp
800050a8:	00000393          	li	t2,0
800050ac:	00770463          	beq	a4,t2,800050b4 <test_2406>
800050b0:	0090306f          	j	800088b8 <fail>

800050b4 <test_2406>:
800050b4:	000011b7          	lui	gp,0x1
800050b8:	96618193          	addi	gp,gp,-1690 # 966 <_start-0x7ffff69a>
800050bc:	00000093          	li	ra,0
800050c0:	ffff8137          	lui	sp,0xffff8
800050c4:	0020b733          	sltu	a4,ra,sp
800050c8:	00100393          	li	t2,1
800050cc:	00770463          	beq	a4,t2,800050d4 <test_2407>
800050d0:	7e80306f          	j	800088b8 <fail>

800050d4 <test_2407>:
800050d4:	000011b7          	lui	gp,0x1
800050d8:	96718193          	addi	gp,gp,-1689 # 967 <_start-0x7ffff699>
800050dc:	800000b7          	lui	ra,0x80000
800050e0:	00000113          	li	sp,0
800050e4:	0020b733          	sltu	a4,ra,sp
800050e8:	00000393          	li	t2,0
800050ec:	00770463          	beq	a4,t2,800050f4 <test_2408>
800050f0:	7c80306f          	j	800088b8 <fail>

800050f4 <test_2408>:
800050f4:	000011b7          	lui	gp,0x1
800050f8:	96818193          	addi	gp,gp,-1688 # 968 <_start-0x7ffff698>
800050fc:	800000b7          	lui	ra,0x80000
80005100:	ffff8137          	lui	sp,0xffff8
80005104:	0020b733          	sltu	a4,ra,sp
80005108:	00100393          	li	t2,1
8000510c:	00770463          	beq	a4,t2,80005114 <test_2409>
80005110:	7a80306f          	j	800088b8 <fail>

80005114 <test_2409>:
80005114:	000011b7          	lui	gp,0x1
80005118:	96918193          	addi	gp,gp,-1687 # 969 <_start-0x7ffff697>
8000511c:	00000093          	li	ra,0
80005120:	00008137          	lui	sp,0x8
80005124:	fff10113          	addi	sp,sp,-1 # 7fff <_start-0x7fff8001>
80005128:	0020b733          	sltu	a4,ra,sp
8000512c:	00100393          	li	t2,1
80005130:	00770463          	beq	a4,t2,80005138 <test_2410>
80005134:	7840306f          	j	800088b8 <fail>

80005138 <test_2410>:
80005138:	000011b7          	lui	gp,0x1
8000513c:	96a18193          	addi	gp,gp,-1686 # 96a <_start-0x7ffff696>
80005140:	800000b7          	lui	ra,0x80000
80005144:	fff08093          	addi	ra,ra,-1 # 7fffffff <_end+0xffff5f2f>
80005148:	00000113          	li	sp,0
8000514c:	0020b733          	sltu	a4,ra,sp
80005150:	00000393          	li	t2,0
80005154:	00770463          	beq	a4,t2,8000515c <test_2411>
80005158:	7600306f          	j	800088b8 <fail>

8000515c <test_2411>:
8000515c:	000011b7          	lui	gp,0x1
80005160:	96b18193          	addi	gp,gp,-1685 # 96b <_start-0x7ffff695>
80005164:	800000b7          	lui	ra,0x80000
80005168:	fff08093          	addi	ra,ra,-1 # 7fffffff <_end+0xffff5f2f>
8000516c:	00008137          	lui	sp,0x8
80005170:	fff10113          	addi	sp,sp,-1 # 7fff <_start-0x7fff8001>
80005174:	0020b733          	sltu	a4,ra,sp
80005178:	00000393          	li	t2,0
8000517c:	00770463          	beq	a4,t2,80005184 <test_2412>
80005180:	7380306f          	j	800088b8 <fail>

80005184 <test_2412>:
80005184:	000011b7          	lui	gp,0x1
80005188:	96c18193          	addi	gp,gp,-1684 # 96c <_start-0x7ffff694>
8000518c:	800000b7          	lui	ra,0x80000
80005190:	00008137          	lui	sp,0x8
80005194:	fff10113          	addi	sp,sp,-1 # 7fff <_start-0x7fff8001>
80005198:	0020b733          	sltu	a4,ra,sp
8000519c:	00000393          	li	t2,0
800051a0:	00770463          	beq	a4,t2,800051a8 <test_2413>
800051a4:	7140306f          	j	800088b8 <fail>

800051a8 <test_2413>:
800051a8:	000011b7          	lui	gp,0x1
800051ac:	96d18193          	addi	gp,gp,-1683 # 96d <_start-0x7ffff693>
800051b0:	800000b7          	lui	ra,0x80000
800051b4:	fff08093          	addi	ra,ra,-1 # 7fffffff <_end+0xffff5f2f>
800051b8:	ffff8137          	lui	sp,0xffff8
800051bc:	0020b733          	sltu	a4,ra,sp
800051c0:	00100393          	li	t2,1
800051c4:	00770463          	beq	a4,t2,800051cc <test_2414>
800051c8:	6f00306f          	j	800088b8 <fail>

800051cc <test_2414>:
800051cc:	000011b7          	lui	gp,0x1
800051d0:	96e18193          	addi	gp,gp,-1682 # 96e <_start-0x7ffff692>
800051d4:	00000093          	li	ra,0
800051d8:	fff00113          	li	sp,-1
800051dc:	0020b733          	sltu	a4,ra,sp
800051e0:	00100393          	li	t2,1
800051e4:	00770463          	beq	a4,t2,800051ec <test_2415>
800051e8:	6d00306f          	j	800088b8 <fail>

800051ec <test_2415>:
800051ec:	000011b7          	lui	gp,0x1
800051f0:	96f18193          	addi	gp,gp,-1681 # 96f <_start-0x7ffff691>
800051f4:	fff00093          	li	ra,-1
800051f8:	00100113          	li	sp,1
800051fc:	0020b733          	sltu	a4,ra,sp
80005200:	00000393          	li	t2,0
80005204:	00770463          	beq	a4,t2,8000520c <test_2416>
80005208:	6b00306f          	j	800088b8 <fail>

8000520c <test_2416>:
8000520c:	000011b7          	lui	gp,0x1
80005210:	97018193          	addi	gp,gp,-1680 # 970 <_start-0x7ffff690>
80005214:	fff00093          	li	ra,-1
80005218:	fff00113          	li	sp,-1
8000521c:	0020b733          	sltu	a4,ra,sp
80005220:	00000393          	li	t2,0
80005224:	00770463          	beq	a4,t2,8000522c <test_2417>
80005228:	6900306f          	j	800088b8 <fail>

8000522c <test_2417>:
8000522c:	000011b7          	lui	gp,0x1
80005230:	97118193          	addi	gp,gp,-1679 # 971 <_start-0x7ffff68f>
80005234:	00e00093          	li	ra,14
80005238:	00d00113          	li	sp,13
8000523c:	0020b0b3          	sltu	ra,ra,sp
80005240:	00000393          	li	t2,0
80005244:	00708463          	beq	ra,t2,8000524c <test_2418>
80005248:	6700306f          	j	800088b8 <fail>

8000524c <test_2418>:
8000524c:	000011b7          	lui	gp,0x1
80005250:	97218193          	addi	gp,gp,-1678 # 972 <_start-0x7ffff68e>
80005254:	00b00093          	li	ra,11
80005258:	00d00113          	li	sp,13
8000525c:	0020b133          	sltu	sp,ra,sp
80005260:	00100393          	li	t2,1
80005264:	00710463          	beq	sp,t2,8000526c <test_2419>
80005268:	6500306f          	j	800088b8 <fail>

8000526c <test_2419>:
8000526c:	000011b7          	lui	gp,0x1
80005270:	97318193          	addi	gp,gp,-1677 # 973 <_start-0x7ffff68d>
80005274:	00d00093          	li	ra,13
80005278:	0010b0b3          	sltu	ra,ra,ra
8000527c:	00000393          	li	t2,0
80005280:	00708463          	beq	ra,t2,80005288 <test_2420>
80005284:	6340306f          	j	800088b8 <fail>

80005288 <test_2420>:
80005288:	000011b7          	lui	gp,0x1
8000528c:	97418193          	addi	gp,gp,-1676 # 974 <_start-0x7ffff68c>
80005290:	00000213          	li	tp,0
80005294:	00b00093          	li	ra,11
80005298:	00d00113          	li	sp,13
8000529c:	0020b733          	sltu	a4,ra,sp
800052a0:	00070313          	mv	t1,a4
800052a4:	00120213          	addi	tp,tp,1 # 1 <_start-0x7fffffff>
800052a8:	00200293          	li	t0,2
800052ac:	fe5214e3          	bne	tp,t0,80005294 <test_2420+0xc>
800052b0:	00100393          	li	t2,1
800052b4:	00730463          	beq	t1,t2,800052bc <test_2421>
800052b8:	6000306f          	j	800088b8 <fail>

800052bc <test_2421>:
800052bc:	000011b7          	lui	gp,0x1
800052c0:	97518193          	addi	gp,gp,-1675 # 975 <_start-0x7ffff68b>
800052c4:	00000213          	li	tp,0
800052c8:	00e00093          	li	ra,14
800052cc:	00d00113          	li	sp,13
800052d0:	0020b733          	sltu	a4,ra,sp
800052d4:	00000013          	nop
800052d8:	00070313          	mv	t1,a4
800052dc:	00120213          	addi	tp,tp,1 # 1 <_start-0x7fffffff>
800052e0:	00200293          	li	t0,2
800052e4:	fe5212e3          	bne	tp,t0,800052c8 <test_2421+0xc>
800052e8:	00000393          	li	t2,0
800052ec:	00730463          	beq	t1,t2,800052f4 <test_2422>
800052f0:	5c80306f          	j	800088b8 <fail>

800052f4 <test_2422>:
800052f4:	000011b7          	lui	gp,0x1
800052f8:	97618193          	addi	gp,gp,-1674 # 976 <_start-0x7ffff68a>
800052fc:	00000213          	li	tp,0
80005300:	00c00093          	li	ra,12
80005304:	00d00113          	li	sp,13
80005308:	0020b733          	sltu	a4,ra,sp
8000530c:	00000013          	nop
80005310:	00000013          	nop
80005314:	00070313          	mv	t1,a4
80005318:	00120213          	addi	tp,tp,1 # 1 <_start-0x7fffffff>
8000531c:	00200293          	li	t0,2
80005320:	fe5210e3          	bne	tp,t0,80005300 <test_2422+0xc>
80005324:	00100393          	li	t2,1
80005328:	00730463          	beq	t1,t2,80005330 <test_2423>
8000532c:	58c0306f          	j	800088b8 <fail>

80005330 <test_2423>:
80005330:	000011b7          	lui	gp,0x1
80005334:	97718193          	addi	gp,gp,-1673 # 977 <_start-0x7ffff689>
80005338:	00000213          	li	tp,0
8000533c:	00e00093          	li	ra,14
80005340:	00d00113          	li	sp,13
80005344:	0020b733          	sltu	a4,ra,sp
80005348:	00120213          	addi	tp,tp,1 # 1 <_start-0x7fffffff>
8000534c:	00200293          	li	t0,2
80005350:	fe5216e3          	bne	tp,t0,8000533c <test_2423+0xc>
80005354:	00000393          	li	t2,0
80005358:	00770463          	beq	a4,t2,80005360 <test_2424>
8000535c:	55c0306f          	j	800088b8 <fail>

80005360 <test_2424>:
80005360:	000011b7          	lui	gp,0x1
80005364:	97818193          	addi	gp,gp,-1672 # 978 <_start-0x7ffff688>
80005368:	00000213          	li	tp,0
8000536c:	00b00093          	li	ra,11
80005370:	00d00113          	li	sp,13
80005374:	00000013          	nop
80005378:	0020b733          	sltu	a4,ra,sp
8000537c:	00120213          	addi	tp,tp,1 # 1 <_start-0x7fffffff>
80005380:	00200293          	li	t0,2
80005384:	fe5214e3          	bne	tp,t0,8000536c <test_2424+0xc>
80005388:	00100393          	li	t2,1
8000538c:	00770463          	beq	a4,t2,80005394 <test_2425>
80005390:	5280306f          	j	800088b8 <fail>

80005394 <test_2425>:
80005394:	000011b7          	lui	gp,0x1
80005398:	97918193          	addi	gp,gp,-1671 # 979 <_start-0x7ffff687>
8000539c:	00000213          	li	tp,0
800053a0:	00f00093          	li	ra,15
800053a4:	00d00113          	li	sp,13
800053a8:	00000013          	nop
800053ac:	00000013          	nop
800053b0:	0020b733          	sltu	a4,ra,sp
800053b4:	00120213          	addi	tp,tp,1 # 1 <_start-0x7fffffff>
800053b8:	00200293          	li	t0,2
800053bc:	fe5212e3          	bne	tp,t0,800053a0 <test_2425+0xc>
800053c0:	00000393          	li	t2,0
800053c4:	00770463          	beq	a4,t2,800053cc <test_2426>
800053c8:	4f00306f          	j	800088b8 <fail>

800053cc <test_2426>:
800053cc:	000011b7          	lui	gp,0x1
800053d0:	97a18193          	addi	gp,gp,-1670 # 97a <_start-0x7ffff686>
800053d4:	00000213          	li	tp,0
800053d8:	00a00093          	li	ra,10
800053dc:	00000013          	nop
800053e0:	00d00113          	li	sp,13
800053e4:	0020b733          	sltu	a4,ra,sp
800053e8:	00120213          	addi	tp,tp,1 # 1 <_start-0x7fffffff>
800053ec:	00200293          	li	t0,2
800053f0:	fe5214e3          	bne	tp,t0,800053d8 <test_2426+0xc>
800053f4:	00100393          	li	t2,1
800053f8:	00770463          	beq	a4,t2,80005400 <test_2427>
800053fc:	4bc0306f          	j	800088b8 <fail>

80005400 <test_2427>:
80005400:	000011b7          	lui	gp,0x1
80005404:	97b18193          	addi	gp,gp,-1669 # 97b <_start-0x7ffff685>
80005408:	00000213          	li	tp,0
8000540c:	01000093          	li	ra,16
80005410:	00000013          	nop
80005414:	00d00113          	li	sp,13
80005418:	00000013          	nop
8000541c:	0020b733          	sltu	a4,ra,sp
80005420:	00120213          	addi	tp,tp,1 # 1 <_start-0x7fffffff>
80005424:	00200293          	li	t0,2
80005428:	fe5212e3          	bne	tp,t0,8000540c <test_2427+0xc>
8000542c:	00000393          	li	t2,0
80005430:	00770463          	beq	a4,t2,80005438 <test_2428>
80005434:	4840306f          	j	800088b8 <fail>

80005438 <test_2428>:
80005438:	000011b7          	lui	gp,0x1
8000543c:	97c18193          	addi	gp,gp,-1668 # 97c <_start-0x7ffff684>
80005440:	00000213          	li	tp,0
80005444:	00900093          	li	ra,9
80005448:	00000013          	nop
8000544c:	00000013          	nop
80005450:	00d00113          	li	sp,13
80005454:	0020b733          	sltu	a4,ra,sp
80005458:	00120213          	addi	tp,tp,1 # 1 <_start-0x7fffffff>
8000545c:	00200293          	li	t0,2
80005460:	fe5212e3          	bne	tp,t0,80005444 <test_2428+0xc>
80005464:	00100393          	li	t2,1
80005468:	00770463          	beq	a4,t2,80005470 <test_2429>
8000546c:	44c0306f          	j	800088b8 <fail>

80005470 <test_2429>:
80005470:	000011b7          	lui	gp,0x1
80005474:	97d18193          	addi	gp,gp,-1667 # 97d <_start-0x7ffff683>
80005478:	00000213          	li	tp,0
8000547c:	00d00113          	li	sp,13
80005480:	01100093          	li	ra,17
80005484:	0020b733          	sltu	a4,ra,sp
80005488:	00120213          	addi	tp,tp,1 # 1 <_start-0x7fffffff>
8000548c:	00200293          	li	t0,2
80005490:	fe5216e3          	bne	tp,t0,8000547c <test_2429+0xc>
80005494:	00000393          	li	t2,0
80005498:	00770463          	beq	a4,t2,800054a0 <test_2430>
8000549c:	41c0306f          	j	800088b8 <fail>

800054a0 <test_2430>:
800054a0:	000011b7          	lui	gp,0x1
800054a4:	97e18193          	addi	gp,gp,-1666 # 97e <_start-0x7ffff682>
800054a8:	00000213          	li	tp,0
800054ac:	00d00113          	li	sp,13
800054b0:	00800093          	li	ra,8
800054b4:	00000013          	nop
800054b8:	0020b733          	sltu	a4,ra,sp
800054bc:	00120213          	addi	tp,tp,1 # 1 <_start-0x7fffffff>
800054c0:	00200293          	li	t0,2
800054c4:	fe5214e3          	bne	tp,t0,800054ac <test_2430+0xc>
800054c8:	00100393          	li	t2,1
800054cc:	00770463          	beq	a4,t2,800054d4 <test_2431>
800054d0:	3e80306f          	j	800088b8 <fail>

800054d4 <test_2431>:
800054d4:	000011b7          	lui	gp,0x1
800054d8:	97f18193          	addi	gp,gp,-1665 # 97f <_start-0x7ffff681>
800054dc:	00000213          	li	tp,0
800054e0:	00d00113          	li	sp,13
800054e4:	01200093          	li	ra,18
800054e8:	00000013          	nop
800054ec:	00000013          	nop
800054f0:	0020b733          	sltu	a4,ra,sp
800054f4:	00120213          	addi	tp,tp,1 # 1 <_start-0x7fffffff>
800054f8:	00200293          	li	t0,2
800054fc:	fe5212e3          	bne	tp,t0,800054e0 <test_2431+0xc>
80005500:	00000393          	li	t2,0
80005504:	00770463          	beq	a4,t2,8000550c <test_2432>
80005508:	3b00306f          	j	800088b8 <fail>

8000550c <test_2432>:
8000550c:	000011b7          	lui	gp,0x1
80005510:	98018193          	addi	gp,gp,-1664 # 980 <_start-0x7ffff680>
80005514:	00000213          	li	tp,0
80005518:	00d00113          	li	sp,13
8000551c:	00000013          	nop
80005520:	00700093          	li	ra,7
80005524:	0020b733          	sltu	a4,ra,sp
80005528:	00120213          	addi	tp,tp,1 # 1 <_start-0x7fffffff>
8000552c:	00200293          	li	t0,2
80005530:	fe5214e3          	bne	tp,t0,80005518 <test_2432+0xc>
80005534:	00100393          	li	t2,1
80005538:	00770463          	beq	a4,t2,80005540 <test_2433>
8000553c:	37c0306f          	j	800088b8 <fail>

80005540 <test_2433>:
80005540:	000011b7          	lui	gp,0x1
80005544:	98118193          	addi	gp,gp,-1663 # 981 <_start-0x7ffff67f>
80005548:	00000213          	li	tp,0
8000554c:	00d00113          	li	sp,13
80005550:	00000013          	nop
80005554:	01300093          	li	ra,19
80005558:	00000013          	nop
8000555c:	0020b733          	sltu	a4,ra,sp
80005560:	00120213          	addi	tp,tp,1 # 1 <_start-0x7fffffff>
80005564:	00200293          	li	t0,2
80005568:	fe5212e3          	bne	tp,t0,8000554c <test_2433+0xc>
8000556c:	00000393          	li	t2,0
80005570:	00770463          	beq	a4,t2,80005578 <test_2434>
80005574:	3440306f          	j	800088b8 <fail>

80005578 <test_2434>:
80005578:	000011b7          	lui	gp,0x1
8000557c:	98218193          	addi	gp,gp,-1662 # 982 <_start-0x7ffff67e>
80005580:	00000213          	li	tp,0
80005584:	00d00113          	li	sp,13
80005588:	00000013          	nop
8000558c:	00000013          	nop
80005590:	00600093          	li	ra,6
80005594:	0020b733          	sltu	a4,ra,sp
80005598:	00120213          	addi	tp,tp,1 # 1 <_start-0x7fffffff>
8000559c:	00200293          	li	t0,2
800055a0:	fe5212e3          	bne	tp,t0,80005584 <test_2434+0xc>
800055a4:	00100393          	li	t2,1
800055a8:	00770463          	beq	a4,t2,800055b0 <test_2435>
800055ac:	30c0306f          	j	800088b8 <fail>

800055b0 <test_2435>:
800055b0:	000011b7          	lui	gp,0x1
800055b4:	98318193          	addi	gp,gp,-1661 # 983 <_start-0x7ffff67d>
800055b8:	fff00093          	li	ra,-1
800055bc:	00103133          	snez	sp,ra
800055c0:	00100393          	li	t2,1
800055c4:	00710463          	beq	sp,t2,800055cc <test_2436>
800055c8:	2f00306f          	j	800088b8 <fail>

800055cc <test_2436>:
800055cc:	000011b7          	lui	gp,0x1
800055d0:	98418193          	addi	gp,gp,-1660 # 984 <_start-0x7ffff67c>
800055d4:	fff00093          	li	ra,-1
800055d8:	0000b133          	sltu	sp,ra,zero
800055dc:	00000393          	li	t2,0
800055e0:	00710463          	beq	sp,t2,800055e8 <test_2437>
800055e4:	2d40306f          	j	800088b8 <fail>

800055e8 <test_2437>:
800055e8:	000011b7          	lui	gp,0x1
800055ec:	98518193          	addi	gp,gp,-1659 # 985 <_start-0x7ffff67b>
800055f0:	000030b3          	snez	ra,zero
800055f4:	00000393          	li	t2,0
800055f8:	00708463          	beq	ra,t2,80005600 <test_2438>
800055fc:	2bc0306f          	j	800088b8 <fail>

80005600 <test_2438>:
80005600:	000011b7          	lui	gp,0x1
80005604:	98618193          	addi	gp,gp,-1658 # 986 <_start-0x7ffff67a>
80005608:	01000093          	li	ra,16
8000560c:	01e00113          	li	sp,30
80005610:	0020b033          	sltu	zero,ra,sp
80005614:	00000393          	li	t2,0
80005618:	00700463          	beq	zero,t2,80005620 <test_2502>
8000561c:	29c0306f          	j	800088b8 <fail>

80005620 <test_2502>:
80005620:	000011b7          	lui	gp,0x1
80005624:	9c618193          	addi	gp,gp,-1594 # 9c6 <_start-0x7ffff63a>
80005628:	00000093          	li	ra,0
8000562c:	0000b713          	sltiu	a4,ra,0
80005630:	00000393          	li	t2,0
80005634:	00770463          	beq	a4,t2,8000563c <test_2503>
80005638:	2800306f          	j	800088b8 <fail>

8000563c <test_2503>:
8000563c:	000011b7          	lui	gp,0x1
80005640:	9c718193          	addi	gp,gp,-1593 # 9c7 <_start-0x7ffff639>
80005644:	00100093          	li	ra,1
80005648:	0010b713          	seqz	a4,ra
8000564c:	00000393          	li	t2,0
80005650:	00770463          	beq	a4,t2,80005658 <test_2504>
80005654:	2640306f          	j	800088b8 <fail>

80005658 <test_2504>:
80005658:	000011b7          	lui	gp,0x1
8000565c:	9c818193          	addi	gp,gp,-1592 # 9c8 <_start-0x7ffff638>
80005660:	00300093          	li	ra,3
80005664:	0070b713          	sltiu	a4,ra,7
80005668:	00100393          	li	t2,1
8000566c:	00770463          	beq	a4,t2,80005674 <test_2505>
80005670:	2480306f          	j	800088b8 <fail>

80005674 <test_2505>:
80005674:	000011b7          	lui	gp,0x1
80005678:	9c918193          	addi	gp,gp,-1591 # 9c9 <_start-0x7ffff637>
8000567c:	00700093          	li	ra,7
80005680:	0030b713          	sltiu	a4,ra,3
80005684:	00000393          	li	t2,0
80005688:	00770463          	beq	a4,t2,80005690 <test_2506>
8000568c:	22c0306f          	j	800088b8 <fail>

80005690 <test_2506>:
80005690:	000011b7          	lui	gp,0x1
80005694:	9ca18193          	addi	gp,gp,-1590 # 9ca <_start-0x7ffff636>
80005698:	00000093          	li	ra,0
8000569c:	8000b713          	sltiu	a4,ra,-2048
800056a0:	00100393          	li	t2,1
800056a4:	00770463          	beq	a4,t2,800056ac <test_2507>
800056a8:	2100306f          	j	800088b8 <fail>

800056ac <test_2507>:
800056ac:	000011b7          	lui	gp,0x1
800056b0:	9cb18193          	addi	gp,gp,-1589 # 9cb <_start-0x7ffff635>
800056b4:	800000b7          	lui	ra,0x80000
800056b8:	0000b713          	sltiu	a4,ra,0
800056bc:	00000393          	li	t2,0
800056c0:	00770463          	beq	a4,t2,800056c8 <test_2508>
800056c4:	1f40306f          	j	800088b8 <fail>

800056c8 <test_2508>:
800056c8:	000011b7          	lui	gp,0x1
800056cc:	9cc18193          	addi	gp,gp,-1588 # 9cc <_start-0x7ffff634>
800056d0:	800000b7          	lui	ra,0x80000
800056d4:	8000b713          	sltiu	a4,ra,-2048
800056d8:	00100393          	li	t2,1
800056dc:	00770463          	beq	a4,t2,800056e4 <test_2509>
800056e0:	1d80306f          	j	800088b8 <fail>

800056e4 <test_2509>:
800056e4:	000011b7          	lui	gp,0x1
800056e8:	9cd18193          	addi	gp,gp,-1587 # 9cd <_start-0x7ffff633>
800056ec:	00000093          	li	ra,0
800056f0:	7ff0b713          	sltiu	a4,ra,2047
800056f4:	00100393          	li	t2,1
800056f8:	00770463          	beq	a4,t2,80005700 <test_2510>
800056fc:	1bc0306f          	j	800088b8 <fail>

80005700 <test_2510>:
80005700:	000011b7          	lui	gp,0x1
80005704:	9ce18193          	addi	gp,gp,-1586 # 9ce <_start-0x7ffff632>
80005708:	800000b7          	lui	ra,0x80000
8000570c:	fff08093          	addi	ra,ra,-1 # 7fffffff <_end+0xffff5f2f>
80005710:	0000b713          	sltiu	a4,ra,0
80005714:	00000393          	li	t2,0
80005718:	00770463          	beq	a4,t2,80005720 <test_2511>
8000571c:	19c0306f          	j	800088b8 <fail>

80005720 <test_2511>:
80005720:	000011b7          	lui	gp,0x1
80005724:	9cf18193          	addi	gp,gp,-1585 # 9cf <_start-0x7ffff631>
80005728:	800000b7          	lui	ra,0x80000
8000572c:	fff08093          	addi	ra,ra,-1 # 7fffffff <_end+0xffff5f2f>
80005730:	7ff0b713          	sltiu	a4,ra,2047
80005734:	00000393          	li	t2,0
80005738:	00770463          	beq	a4,t2,80005740 <test_2512>
8000573c:	17c0306f          	j	800088b8 <fail>

80005740 <test_2512>:
80005740:	000011b7          	lui	gp,0x1
80005744:	9d018193          	addi	gp,gp,-1584 # 9d0 <_start-0x7ffff630>
80005748:	800000b7          	lui	ra,0x80000
8000574c:	7ff0b713          	sltiu	a4,ra,2047
80005750:	00000393          	li	t2,0
80005754:	00770463          	beq	a4,t2,8000575c <test_2513>
80005758:	1600306f          	j	800088b8 <fail>

8000575c <test_2513>:
8000575c:	000011b7          	lui	gp,0x1
80005760:	9d118193          	addi	gp,gp,-1583 # 9d1 <_start-0x7ffff62f>
80005764:	800000b7          	lui	ra,0x80000
80005768:	fff08093          	addi	ra,ra,-1 # 7fffffff <_end+0xffff5f2f>
8000576c:	8000b713          	sltiu	a4,ra,-2048
80005770:	00100393          	li	t2,1
80005774:	00770463          	beq	a4,t2,8000577c <test_2514>
80005778:	1400306f          	j	800088b8 <fail>

8000577c <test_2514>:
8000577c:	000011b7          	lui	gp,0x1
80005780:	9d218193          	addi	gp,gp,-1582 # 9d2 <_start-0x7ffff62e>
80005784:	00000093          	li	ra,0
80005788:	fff0b713          	sltiu	a4,ra,-1
8000578c:	00100393          	li	t2,1
80005790:	00770463          	beq	a4,t2,80005798 <test_2515>
80005794:	1240306f          	j	800088b8 <fail>

80005798 <test_2515>:
80005798:	000011b7          	lui	gp,0x1
8000579c:	9d318193          	addi	gp,gp,-1581 # 9d3 <_start-0x7ffff62d>
800057a0:	fff00093          	li	ra,-1
800057a4:	0010b713          	seqz	a4,ra
800057a8:	00000393          	li	t2,0
800057ac:	00770463          	beq	a4,t2,800057b4 <test_2516>
800057b0:	1080306f          	j	800088b8 <fail>

800057b4 <test_2516>:
800057b4:	000011b7          	lui	gp,0x1
800057b8:	9d418193          	addi	gp,gp,-1580 # 9d4 <_start-0x7ffff62c>
800057bc:	fff00093          	li	ra,-1
800057c0:	fff0b713          	sltiu	a4,ra,-1
800057c4:	00000393          	li	t2,0
800057c8:	00770463          	beq	a4,t2,800057d0 <test_2517>
800057cc:	0ec0306f          	j	800088b8 <fail>

800057d0 <test_2517>:
800057d0:	000011b7          	lui	gp,0x1
800057d4:	9d518193          	addi	gp,gp,-1579 # 9d5 <_start-0x7ffff62b>
800057d8:	00b00093          	li	ra,11
800057dc:	00d0b093          	sltiu	ra,ra,13
800057e0:	00100393          	li	t2,1
800057e4:	00708463          	beq	ra,t2,800057ec <test_2518>
800057e8:	0d00306f          	j	800088b8 <fail>

800057ec <test_2518>:
800057ec:	000011b7          	lui	gp,0x1
800057f0:	9d618193          	addi	gp,gp,-1578 # 9d6 <_start-0x7ffff62a>
800057f4:	00000213          	li	tp,0
800057f8:	00f00093          	li	ra,15
800057fc:	00a0b713          	sltiu	a4,ra,10
80005800:	00070313          	mv	t1,a4
80005804:	00120213          	addi	tp,tp,1 # 1 <_start-0x7fffffff>
80005808:	00200293          	li	t0,2
8000580c:	fe5216e3          	bne	tp,t0,800057f8 <test_2518+0xc>
80005810:	00000393          	li	t2,0
80005814:	00730463          	beq	t1,t2,8000581c <test_2519>
80005818:	0a00306f          	j	800088b8 <fail>

8000581c <test_2519>:
8000581c:	000011b7          	lui	gp,0x1
80005820:	9d718193          	addi	gp,gp,-1577 # 9d7 <_start-0x7ffff629>
80005824:	00000213          	li	tp,0
80005828:	00a00093          	li	ra,10
8000582c:	0100b713          	sltiu	a4,ra,16
80005830:	00000013          	nop
80005834:	00070313          	mv	t1,a4
80005838:	00120213          	addi	tp,tp,1 # 1 <_start-0x7fffffff>
8000583c:	00200293          	li	t0,2
80005840:	fe5214e3          	bne	tp,t0,80005828 <test_2519+0xc>
80005844:	00100393          	li	t2,1
80005848:	00730463          	beq	t1,t2,80005850 <test_2520>
8000584c:	06c0306f          	j	800088b8 <fail>

80005850 <test_2520>:
80005850:	000011b7          	lui	gp,0x1
80005854:	9d818193          	addi	gp,gp,-1576 # 9d8 <_start-0x7ffff628>
80005858:	00000213          	li	tp,0
8000585c:	01000093          	li	ra,16
80005860:	0090b713          	sltiu	a4,ra,9
80005864:	00000013          	nop
80005868:	00000013          	nop
8000586c:	00070313          	mv	t1,a4
80005870:	00120213          	addi	tp,tp,1 # 1 <_start-0x7fffffff>
80005874:	00200293          	li	t0,2
80005878:	fe5212e3          	bne	tp,t0,8000585c <test_2520+0xc>
8000587c:	00000393          	li	t2,0
80005880:	00730463          	beq	t1,t2,80005888 <test_2521>
80005884:	0340306f          	j	800088b8 <fail>

80005888 <test_2521>:
80005888:	000011b7          	lui	gp,0x1
8000588c:	9d918193          	addi	gp,gp,-1575 # 9d9 <_start-0x7ffff627>
80005890:	00000213          	li	tp,0
80005894:	00b00093          	li	ra,11
80005898:	00f0b713          	sltiu	a4,ra,15
8000589c:	00120213          	addi	tp,tp,1 # 1 <_start-0x7fffffff>
800058a0:	00200293          	li	t0,2
800058a4:	fe5218e3          	bne	tp,t0,80005894 <test_2521+0xc>
800058a8:	00100393          	li	t2,1
800058ac:	00770463          	beq	a4,t2,800058b4 <test_2522>
800058b0:	0080306f          	j	800088b8 <fail>

800058b4 <test_2522>:
800058b4:	000011b7          	lui	gp,0x1
800058b8:	9da18193          	addi	gp,gp,-1574 # 9da <_start-0x7ffff626>
800058bc:	00000213          	li	tp,0
800058c0:	01100093          	li	ra,17
800058c4:	00000013          	nop
800058c8:	0080b713          	sltiu	a4,ra,8
800058cc:	00120213          	addi	tp,tp,1 # 1 <_start-0x7fffffff>
800058d0:	00200293          	li	t0,2
800058d4:	fe5216e3          	bne	tp,t0,800058c0 <test_2522+0xc>
800058d8:	00000393          	li	t2,0
800058dc:	00770463          	beq	a4,t2,800058e4 <test_2523>
800058e0:	7d90206f          	j	800088b8 <fail>

800058e4 <test_2523>:
800058e4:	000011b7          	lui	gp,0x1
800058e8:	9db18193          	addi	gp,gp,-1573 # 9db <_start-0x7ffff625>
800058ec:	00000213          	li	tp,0
800058f0:	00c00093          	li	ra,12
800058f4:	00000013          	nop
800058f8:	00000013          	nop
800058fc:	00e0b713          	sltiu	a4,ra,14
80005900:	00120213          	addi	tp,tp,1 # 1 <_start-0x7fffffff>
80005904:	00200293          	li	t0,2
80005908:	fe5214e3          	bne	tp,t0,800058f0 <test_2523+0xc>
8000590c:	00100393          	li	t2,1
80005910:	00770463          	beq	a4,t2,80005918 <test_2524>
80005914:	7a50206f          	j	800088b8 <fail>

80005918 <test_2524>:
80005918:	000011b7          	lui	gp,0x1
8000591c:	9dc18193          	addi	gp,gp,-1572 # 9dc <_start-0x7ffff624>
80005920:	fff03093          	sltiu	ra,zero,-1
80005924:	00100393          	li	t2,1
80005928:	00708463          	beq	ra,t2,80005930 <test_2525>
8000592c:	78d0206f          	j	800088b8 <fail>

80005930 <test_2525>:
80005930:	000011b7          	lui	gp,0x1
80005934:	9dd18193          	addi	gp,gp,-1571 # 9dd <_start-0x7ffff623>
80005938:	00ff00b7          	lui	ra,0xff0
8000593c:	0ff08093          	addi	ra,ra,255 # ff00ff <_start-0x7f00ff01>
80005940:	fff0b013          	sltiu	zero,ra,-1
80005944:	00000393          	li	t2,0
80005948:	00700463          	beq	zero,t2,80005950 <test_2602>
8000594c:	76d0206f          	j	800088b8 <fail>

80005950 <test_2602>:
80005950:	000011b7          	lui	gp,0x1
80005954:	a2a18193          	addi	gp,gp,-1494 # a2a <_start-0x7ffff5d6>
80005958:	800000b7          	lui	ra,0x80000
8000595c:	00000113          	li	sp,0
80005960:	4020d733          	sra	a4,ra,sp
80005964:	800003b7          	lui	t2,0x80000
80005968:	00770463          	beq	a4,t2,80005970 <test_2603>
8000596c:	74d0206f          	j	800088b8 <fail>

80005970 <test_2603>:
80005970:	000011b7          	lui	gp,0x1
80005974:	a2b18193          	addi	gp,gp,-1493 # a2b <_start-0x7ffff5d5>
80005978:	800000b7          	lui	ra,0x80000
8000597c:	00100113          	li	sp,1
80005980:	4020d733          	sra	a4,ra,sp
80005984:	c00003b7          	lui	t2,0xc0000
80005988:	00770463          	beq	a4,t2,80005990 <test_2604>
8000598c:	72d0206f          	j	800088b8 <fail>

80005990 <test_2604>:
80005990:	000011b7          	lui	gp,0x1
80005994:	a2c18193          	addi	gp,gp,-1492 # a2c <_start-0x7ffff5d4>
80005998:	800000b7          	lui	ra,0x80000
8000599c:	00700113          	li	sp,7
800059a0:	4020d733          	sra	a4,ra,sp
800059a4:	ff0003b7          	lui	t2,0xff000
800059a8:	00770463          	beq	a4,t2,800059b0 <test_2605>
800059ac:	70d0206f          	j	800088b8 <fail>

800059b0 <test_2605>:
800059b0:	000011b7          	lui	gp,0x1
800059b4:	a2d18193          	addi	gp,gp,-1491 # a2d <_start-0x7ffff5d3>
800059b8:	800000b7          	lui	ra,0x80000
800059bc:	00e00113          	li	sp,14
800059c0:	4020d733          	sra	a4,ra,sp
800059c4:	fffe03b7          	lui	t2,0xfffe0
800059c8:	00770463          	beq	a4,t2,800059d0 <test_2606>
800059cc:	6ed0206f          	j	800088b8 <fail>

800059d0 <test_2606>:
800059d0:	000011b7          	lui	gp,0x1
800059d4:	a2e18193          	addi	gp,gp,-1490 # a2e <_start-0x7ffff5d2>
800059d8:	800000b7          	lui	ra,0x80000
800059dc:	00108093          	addi	ra,ra,1 # 80000001 <_end+0xffff5f31>
800059e0:	01f00113          	li	sp,31
800059e4:	4020d733          	sra	a4,ra,sp
800059e8:	fff00393          	li	t2,-1
800059ec:	00770463          	beq	a4,t2,800059f4 <test_2607>
800059f0:	6c90206f          	j	800088b8 <fail>

800059f4 <test_2607>:
800059f4:	000011b7          	lui	gp,0x1
800059f8:	a2f18193          	addi	gp,gp,-1489 # a2f <_start-0x7ffff5d1>
800059fc:	800000b7          	lui	ra,0x80000
80005a00:	fff08093          	addi	ra,ra,-1 # 7fffffff <_end+0xffff5f2f>
80005a04:	00000113          	li	sp,0
80005a08:	4020d733          	sra	a4,ra,sp
80005a0c:	800003b7          	lui	t2,0x80000
80005a10:	fff38393          	addi	t2,t2,-1 # 7fffffff <_end+0xffff5f2f>
80005a14:	00770463          	beq	a4,t2,80005a1c <test_2608>
80005a18:	6a10206f          	j	800088b8 <fail>

80005a1c <test_2608>:
80005a1c:	000011b7          	lui	gp,0x1
80005a20:	a3018193          	addi	gp,gp,-1488 # a30 <_start-0x7ffff5d0>
80005a24:	800000b7          	lui	ra,0x80000
80005a28:	fff08093          	addi	ra,ra,-1 # 7fffffff <_end+0xffff5f2f>
80005a2c:	00100113          	li	sp,1
80005a30:	4020d733          	sra	a4,ra,sp
80005a34:	400003b7          	lui	t2,0x40000
80005a38:	fff38393          	addi	t2,t2,-1 # 3fffffff <_start-0x40000001>
80005a3c:	00770463          	beq	a4,t2,80005a44 <test_2609>
80005a40:	6790206f          	j	800088b8 <fail>

80005a44 <test_2609>:
80005a44:	000011b7          	lui	gp,0x1
80005a48:	a3118193          	addi	gp,gp,-1487 # a31 <_start-0x7ffff5cf>
80005a4c:	800000b7          	lui	ra,0x80000
80005a50:	fff08093          	addi	ra,ra,-1 # 7fffffff <_end+0xffff5f2f>
80005a54:	00700113          	li	sp,7
80005a58:	4020d733          	sra	a4,ra,sp
80005a5c:	010003b7          	lui	t2,0x1000
80005a60:	fff38393          	addi	t2,t2,-1 # ffffff <_start-0x7f000001>
80005a64:	00770463          	beq	a4,t2,80005a6c <test_2610>
80005a68:	6510206f          	j	800088b8 <fail>

80005a6c <test_2610>:
80005a6c:	000011b7          	lui	gp,0x1
80005a70:	a3218193          	addi	gp,gp,-1486 # a32 <_start-0x7ffff5ce>
80005a74:	800000b7          	lui	ra,0x80000
80005a78:	fff08093          	addi	ra,ra,-1 # 7fffffff <_end+0xffff5f2f>
80005a7c:	00e00113          	li	sp,14
80005a80:	4020d733          	sra	a4,ra,sp
80005a84:	000203b7          	lui	t2,0x20
80005a88:	fff38393          	addi	t2,t2,-1 # 1ffff <_start-0x7ffe0001>
80005a8c:	00770463          	beq	a4,t2,80005a94 <test_2611>
80005a90:	6290206f          	j	800088b8 <fail>

80005a94 <test_2611>:
80005a94:	000011b7          	lui	gp,0x1
80005a98:	a3318193          	addi	gp,gp,-1485 # a33 <_start-0x7ffff5cd>
80005a9c:	800000b7          	lui	ra,0x80000
80005aa0:	fff08093          	addi	ra,ra,-1 # 7fffffff <_end+0xffff5f2f>
80005aa4:	01f00113          	li	sp,31
80005aa8:	4020d733          	sra	a4,ra,sp
80005aac:	00000393          	li	t2,0
80005ab0:	00770463          	beq	a4,t2,80005ab8 <test_2612>
80005ab4:	6050206f          	j	800088b8 <fail>

80005ab8 <test_2612>:
80005ab8:	000011b7          	lui	gp,0x1
80005abc:	a3418193          	addi	gp,gp,-1484 # a34 <_start-0x7ffff5cc>
80005ac0:	818180b7          	lui	ra,0x81818
80005ac4:	18108093          	addi	ra,ra,385 # 81818181 <_end+0x180e0b1>
80005ac8:	00000113          	li	sp,0
80005acc:	4020d733          	sra	a4,ra,sp
80005ad0:	818183b7          	lui	t2,0x81818
80005ad4:	18138393          	addi	t2,t2,385 # 81818181 <_end+0x180e0b1>
80005ad8:	00770463          	beq	a4,t2,80005ae0 <test_2613>
80005adc:	5dd0206f          	j	800088b8 <fail>

80005ae0 <test_2613>:
80005ae0:	000011b7          	lui	gp,0x1
80005ae4:	a3518193          	addi	gp,gp,-1483 # a35 <_start-0x7ffff5cb>
80005ae8:	818180b7          	lui	ra,0x81818
80005aec:	18108093          	addi	ra,ra,385 # 81818181 <_end+0x180e0b1>
80005af0:	00100113          	li	sp,1
80005af4:	4020d733          	sra	a4,ra,sp
80005af8:	c0c0c3b7          	lui	t2,0xc0c0c
80005afc:	0c038393          	addi	t2,t2,192 # c0c0c0c0 <_end+0x40c01ff0>
80005b00:	00770463          	beq	a4,t2,80005b08 <test_2614>
80005b04:	5b50206f          	j	800088b8 <fail>

80005b08 <test_2614>:
80005b08:	000011b7          	lui	gp,0x1
80005b0c:	a3618193          	addi	gp,gp,-1482 # a36 <_start-0x7ffff5ca>
80005b10:	818180b7          	lui	ra,0x81818
80005b14:	18108093          	addi	ra,ra,385 # 81818181 <_end+0x180e0b1>
80005b18:	00700113          	li	sp,7
80005b1c:	4020d733          	sra	a4,ra,sp
80005b20:	ff0303b7          	lui	t2,0xff030
80005b24:	30338393          	addi	t2,t2,771 # ff030303 <_end+0x7f026233>
80005b28:	00770463          	beq	a4,t2,80005b30 <test_2615>
80005b2c:	58d0206f          	j	800088b8 <fail>

80005b30 <test_2615>:
80005b30:	000011b7          	lui	gp,0x1
80005b34:	a3718193          	addi	gp,gp,-1481 # a37 <_start-0x7ffff5c9>
80005b38:	818180b7          	lui	ra,0x81818
80005b3c:	18108093          	addi	ra,ra,385 # 81818181 <_end+0x180e0b1>
80005b40:	00e00113          	li	sp,14
80005b44:	4020d733          	sra	a4,ra,sp
80005b48:	fffe03b7          	lui	t2,0xfffe0
80005b4c:	60638393          	addi	t2,t2,1542 # fffe0606 <_end+0x7ffd6536>
80005b50:	00770463          	beq	a4,t2,80005b58 <test_2616>
80005b54:	5650206f          	j	800088b8 <fail>

80005b58 <test_2616>:
80005b58:	000011b7          	lui	gp,0x1
80005b5c:	a3818193          	addi	gp,gp,-1480 # a38 <_start-0x7ffff5c8>
80005b60:	818180b7          	lui	ra,0x81818
80005b64:	18108093          	addi	ra,ra,385 # 81818181 <_end+0x180e0b1>
80005b68:	01f00113          	li	sp,31
80005b6c:	4020d733          	sra	a4,ra,sp
80005b70:	fff00393          	li	t2,-1
80005b74:	00770463          	beq	a4,t2,80005b7c <test_2617>
80005b78:	5410206f          	j	800088b8 <fail>

80005b7c <test_2617>:
80005b7c:	000011b7          	lui	gp,0x1
80005b80:	a3918193          	addi	gp,gp,-1479 # a39 <_start-0x7ffff5c7>
80005b84:	818180b7          	lui	ra,0x81818
80005b88:	18108093          	addi	ra,ra,385 # 81818181 <_end+0x180e0b1>
80005b8c:	fc000113          	li	sp,-64
80005b90:	4020d733          	sra	a4,ra,sp
80005b94:	818183b7          	lui	t2,0x81818
80005b98:	18138393          	addi	t2,t2,385 # 81818181 <_end+0x180e0b1>
80005b9c:	00770463          	beq	a4,t2,80005ba4 <test_2618>
80005ba0:	5190206f          	j	800088b8 <fail>

80005ba4 <test_2618>:
80005ba4:	000011b7          	lui	gp,0x1
80005ba8:	a3a18193          	addi	gp,gp,-1478 # a3a <_start-0x7ffff5c6>
80005bac:	818180b7          	lui	ra,0x81818
80005bb0:	18108093          	addi	ra,ra,385 # 81818181 <_end+0x180e0b1>
80005bb4:	fc100113          	li	sp,-63
80005bb8:	4020d733          	sra	a4,ra,sp
80005bbc:	c0c0c3b7          	lui	t2,0xc0c0c
80005bc0:	0c038393          	addi	t2,t2,192 # c0c0c0c0 <_end+0x40c01ff0>
80005bc4:	00770463          	beq	a4,t2,80005bcc <test_2619>
80005bc8:	4f10206f          	j	800088b8 <fail>

80005bcc <test_2619>:
80005bcc:	000011b7          	lui	gp,0x1
80005bd0:	a3b18193          	addi	gp,gp,-1477 # a3b <_start-0x7ffff5c5>
80005bd4:	818180b7          	lui	ra,0x81818
80005bd8:	18108093          	addi	ra,ra,385 # 81818181 <_end+0x180e0b1>
80005bdc:	fc700113          	li	sp,-57
80005be0:	4020d733          	sra	a4,ra,sp
80005be4:	ff0303b7          	lui	t2,0xff030
80005be8:	30338393          	addi	t2,t2,771 # ff030303 <_end+0x7f026233>
80005bec:	00770463          	beq	a4,t2,80005bf4 <test_2620>
80005bf0:	4c90206f          	j	800088b8 <fail>

80005bf4 <test_2620>:
80005bf4:	000011b7          	lui	gp,0x1
80005bf8:	a3c18193          	addi	gp,gp,-1476 # a3c <_start-0x7ffff5c4>
80005bfc:	818180b7          	lui	ra,0x81818
80005c00:	18108093          	addi	ra,ra,385 # 81818181 <_end+0x180e0b1>
80005c04:	fce00113          	li	sp,-50
80005c08:	4020d733          	sra	a4,ra,sp
80005c0c:	fffe03b7          	lui	t2,0xfffe0
80005c10:	60638393          	addi	t2,t2,1542 # fffe0606 <_end+0x7ffd6536>
80005c14:	00770463          	beq	a4,t2,80005c1c <test_2621>
80005c18:	4a10206f          	j	800088b8 <fail>

80005c1c <test_2621>:
80005c1c:	000011b7          	lui	gp,0x1
80005c20:	a3d18193          	addi	gp,gp,-1475 # a3d <_start-0x7ffff5c3>
80005c24:	818180b7          	lui	ra,0x81818
80005c28:	18108093          	addi	ra,ra,385 # 81818181 <_end+0x180e0b1>
80005c2c:	fff00113          	li	sp,-1
80005c30:	4020d733          	sra	a4,ra,sp
80005c34:	fff00393          	li	t2,-1
80005c38:	00770463          	beq	a4,t2,80005c40 <test_2622>
80005c3c:	47d0206f          	j	800088b8 <fail>

80005c40 <test_2622>:
80005c40:	000011b7          	lui	gp,0x1
80005c44:	a3e18193          	addi	gp,gp,-1474 # a3e <_start-0x7ffff5c2>
80005c48:	800000b7          	lui	ra,0x80000
80005c4c:	00700113          	li	sp,7
80005c50:	4020d0b3          	sra	ra,ra,sp
80005c54:	ff0003b7          	lui	t2,0xff000
80005c58:	00708463          	beq	ra,t2,80005c60 <test_2623>
80005c5c:	45d0206f          	j	800088b8 <fail>

80005c60 <test_2623>:
80005c60:	000011b7          	lui	gp,0x1
80005c64:	a3f18193          	addi	gp,gp,-1473 # a3f <_start-0x7ffff5c1>
80005c68:	800000b7          	lui	ra,0x80000
80005c6c:	00e00113          	li	sp,14
80005c70:	4020d133          	sra	sp,ra,sp
80005c74:	fffe03b7          	lui	t2,0xfffe0
80005c78:	00710463          	beq	sp,t2,80005c80 <test_2624>
80005c7c:	43d0206f          	j	800088b8 <fail>

80005c80 <test_2624>:
80005c80:	000011b7          	lui	gp,0x1
80005c84:	a4018193          	addi	gp,gp,-1472 # a40 <_start-0x7ffff5c0>
80005c88:	00700093          	li	ra,7
80005c8c:	4010d0b3          	sra	ra,ra,ra
80005c90:	00000393          	li	t2,0
80005c94:	00708463          	beq	ra,t2,80005c9c <test_2625>
80005c98:	4210206f          	j	800088b8 <fail>

80005c9c <test_2625>:
80005c9c:	000011b7          	lui	gp,0x1
80005ca0:	a4118193          	addi	gp,gp,-1471 # a41 <_start-0x7ffff5bf>
80005ca4:	00000213          	li	tp,0
80005ca8:	800000b7          	lui	ra,0x80000
80005cac:	00700113          	li	sp,7
80005cb0:	4020d733          	sra	a4,ra,sp
80005cb4:	00070313          	mv	t1,a4
80005cb8:	00120213          	addi	tp,tp,1 # 1 <_start-0x7fffffff>
80005cbc:	00200293          	li	t0,2
80005cc0:	fe5214e3          	bne	tp,t0,80005ca8 <test_2625+0xc>
80005cc4:	ff0003b7          	lui	t2,0xff000
80005cc8:	00730463          	beq	t1,t2,80005cd0 <test_2626>
80005ccc:	3ed0206f          	j	800088b8 <fail>

80005cd0 <test_2626>:
80005cd0:	000011b7          	lui	gp,0x1
80005cd4:	a4218193          	addi	gp,gp,-1470 # a42 <_start-0x7ffff5be>
80005cd8:	00000213          	li	tp,0
80005cdc:	800000b7          	lui	ra,0x80000
80005ce0:	00e00113          	li	sp,14
80005ce4:	4020d733          	sra	a4,ra,sp
80005ce8:	00000013          	nop
80005cec:	00070313          	mv	t1,a4
80005cf0:	00120213          	addi	tp,tp,1 # 1 <_start-0x7fffffff>
80005cf4:	00200293          	li	t0,2
80005cf8:	fe5212e3          	bne	tp,t0,80005cdc <test_2626+0xc>
80005cfc:	fffe03b7          	lui	t2,0xfffe0
80005d00:	00730463          	beq	t1,t2,80005d08 <test_2627>
80005d04:	3b50206f          	j	800088b8 <fail>

80005d08 <test_2627>:
80005d08:	000011b7          	lui	gp,0x1
80005d0c:	a4318193          	addi	gp,gp,-1469 # a43 <_start-0x7ffff5bd>
80005d10:	00000213          	li	tp,0
80005d14:	800000b7          	lui	ra,0x80000
80005d18:	01f00113          	li	sp,31
80005d1c:	4020d733          	sra	a4,ra,sp
80005d20:	00000013          	nop
80005d24:	00000013          	nop
80005d28:	00070313          	mv	t1,a4
80005d2c:	00120213          	addi	tp,tp,1 # 1 <_start-0x7fffffff>
80005d30:	00200293          	li	t0,2
80005d34:	fe5210e3          	bne	tp,t0,80005d14 <test_2627+0xc>
80005d38:	fff00393          	li	t2,-1
80005d3c:	00730463          	beq	t1,t2,80005d44 <test_2628>
80005d40:	3790206f          	j	800088b8 <fail>

80005d44 <test_2628>:
80005d44:	000011b7          	lui	gp,0x1
80005d48:	a4418193          	addi	gp,gp,-1468 # a44 <_start-0x7ffff5bc>
80005d4c:	00000213          	li	tp,0
80005d50:	800000b7          	lui	ra,0x80000
80005d54:	00700113          	li	sp,7
80005d58:	4020d733          	sra	a4,ra,sp
80005d5c:	00120213          	addi	tp,tp,1 # 1 <_start-0x7fffffff>
80005d60:	00200293          	li	t0,2
80005d64:	fe5216e3          	bne	tp,t0,80005d50 <test_2628+0xc>
80005d68:	ff0003b7          	lui	t2,0xff000
80005d6c:	00770463          	beq	a4,t2,80005d74 <test_2629>
80005d70:	3490206f          	j	800088b8 <fail>

80005d74 <test_2629>:
80005d74:	000011b7          	lui	gp,0x1
80005d78:	a4518193          	addi	gp,gp,-1467 # a45 <_start-0x7ffff5bb>
80005d7c:	00000213          	li	tp,0
80005d80:	800000b7          	lui	ra,0x80000
80005d84:	00e00113          	li	sp,14
80005d88:	00000013          	nop
80005d8c:	4020d733          	sra	a4,ra,sp
80005d90:	00120213          	addi	tp,tp,1 # 1 <_start-0x7fffffff>
80005d94:	00200293          	li	t0,2
80005d98:	fe5214e3          	bne	tp,t0,80005d80 <test_2629+0xc>
80005d9c:	fffe03b7          	lui	t2,0xfffe0
80005da0:	00770463          	beq	a4,t2,80005da8 <test_2630>
80005da4:	3150206f          	j	800088b8 <fail>

80005da8 <test_2630>:
80005da8:	000011b7          	lui	gp,0x1
80005dac:	a4618193          	addi	gp,gp,-1466 # a46 <_start-0x7ffff5ba>
80005db0:	00000213          	li	tp,0
80005db4:	800000b7          	lui	ra,0x80000
80005db8:	01f00113          	li	sp,31
80005dbc:	00000013          	nop
80005dc0:	00000013          	nop
80005dc4:	4020d733          	sra	a4,ra,sp
80005dc8:	00120213          	addi	tp,tp,1 # 1 <_start-0x7fffffff>
80005dcc:	00200293          	li	t0,2
80005dd0:	fe5212e3          	bne	tp,t0,80005db4 <test_2630+0xc>
80005dd4:	fff00393          	li	t2,-1
80005dd8:	00770463          	beq	a4,t2,80005de0 <test_2631>
80005ddc:	2dd0206f          	j	800088b8 <fail>

80005de0 <test_2631>:
80005de0:	000011b7          	lui	gp,0x1
80005de4:	a4718193          	addi	gp,gp,-1465 # a47 <_start-0x7ffff5b9>
80005de8:	00000213          	li	tp,0
80005dec:	800000b7          	lui	ra,0x80000
80005df0:	00000013          	nop
80005df4:	00700113          	li	sp,7
80005df8:	4020d733          	sra	a4,ra,sp
80005dfc:	00120213          	addi	tp,tp,1 # 1 <_start-0x7fffffff>
80005e00:	00200293          	li	t0,2
80005e04:	fe5214e3          	bne	tp,t0,80005dec <test_2631+0xc>
80005e08:	ff0003b7          	lui	t2,0xff000
80005e0c:	00770463          	beq	a4,t2,80005e14 <test_2632>
80005e10:	2a90206f          	j	800088b8 <fail>

80005e14 <test_2632>:
80005e14:	000011b7          	lui	gp,0x1
80005e18:	a4818193          	addi	gp,gp,-1464 # a48 <_start-0x7ffff5b8>
80005e1c:	00000213          	li	tp,0
80005e20:	800000b7          	lui	ra,0x80000
80005e24:	00000013          	nop
80005e28:	00e00113          	li	sp,14
80005e2c:	00000013          	nop
80005e30:	4020d733          	sra	a4,ra,sp
80005e34:	00120213          	addi	tp,tp,1 # 1 <_start-0x7fffffff>
80005e38:	00200293          	li	t0,2
80005e3c:	fe5212e3          	bne	tp,t0,80005e20 <test_2632+0xc>
80005e40:	fffe03b7          	lui	t2,0xfffe0
80005e44:	00770463          	beq	a4,t2,80005e4c <test_2633>
80005e48:	2710206f          	j	800088b8 <fail>

80005e4c <test_2633>:
80005e4c:	000011b7          	lui	gp,0x1
80005e50:	a4918193          	addi	gp,gp,-1463 # a49 <_start-0x7ffff5b7>
80005e54:	00000213          	li	tp,0
80005e58:	800000b7          	lui	ra,0x80000
80005e5c:	00000013          	nop
80005e60:	00000013          	nop
80005e64:	01f00113          	li	sp,31
80005e68:	4020d733          	sra	a4,ra,sp
80005e6c:	00120213          	addi	tp,tp,1 # 1 <_start-0x7fffffff>
80005e70:	00200293          	li	t0,2
80005e74:	fe5212e3          	bne	tp,t0,80005e58 <test_2633+0xc>
80005e78:	fff00393          	li	t2,-1
80005e7c:	00770463          	beq	a4,t2,80005e84 <test_2634>
80005e80:	2390206f          	j	800088b8 <fail>

80005e84 <test_2634>:
80005e84:	000011b7          	lui	gp,0x1
80005e88:	a4a18193          	addi	gp,gp,-1462 # a4a <_start-0x7ffff5b6>
80005e8c:	00000213          	li	tp,0
80005e90:	00700113          	li	sp,7
80005e94:	800000b7          	lui	ra,0x80000
80005e98:	4020d733          	sra	a4,ra,sp
80005e9c:	00120213          	addi	tp,tp,1 # 1 <_start-0x7fffffff>
80005ea0:	00200293          	li	t0,2
80005ea4:	fe5216e3          	bne	tp,t0,80005e90 <test_2634+0xc>
80005ea8:	ff0003b7          	lui	t2,0xff000
80005eac:	00770463          	beq	a4,t2,80005eb4 <test_2635>
80005eb0:	2090206f          	j	800088b8 <fail>

80005eb4 <test_2635>:
80005eb4:	000011b7          	lui	gp,0x1
80005eb8:	a4b18193          	addi	gp,gp,-1461 # a4b <_start-0x7ffff5b5>
80005ebc:	00000213          	li	tp,0
80005ec0:	00e00113          	li	sp,14
80005ec4:	800000b7          	lui	ra,0x80000
80005ec8:	00000013          	nop
80005ecc:	4020d733          	sra	a4,ra,sp
80005ed0:	00120213          	addi	tp,tp,1 # 1 <_start-0x7fffffff>
80005ed4:	00200293          	li	t0,2
80005ed8:	fe5214e3          	bne	tp,t0,80005ec0 <test_2635+0xc>
80005edc:	fffe03b7          	lui	t2,0xfffe0
80005ee0:	00770463          	beq	a4,t2,80005ee8 <test_2636>
80005ee4:	1d50206f          	j	800088b8 <fail>

80005ee8 <test_2636>:
80005ee8:	000011b7          	lui	gp,0x1
80005eec:	a4c18193          	addi	gp,gp,-1460 # a4c <_start-0x7ffff5b4>
80005ef0:	00000213          	li	tp,0
80005ef4:	01f00113          	li	sp,31
80005ef8:	800000b7          	lui	ra,0x80000
80005efc:	00000013          	nop
80005f00:	00000013          	nop
80005f04:	4020d733          	sra	a4,ra,sp
80005f08:	00120213          	addi	tp,tp,1 # 1 <_start-0x7fffffff>
80005f0c:	00200293          	li	t0,2
80005f10:	fe5212e3          	bne	tp,t0,80005ef4 <test_2636+0xc>
80005f14:	fff00393          	li	t2,-1
80005f18:	00770463          	beq	a4,t2,80005f20 <test_2637>
80005f1c:	19d0206f          	j	800088b8 <fail>

80005f20 <test_2637>:
80005f20:	000011b7          	lui	gp,0x1
80005f24:	a4d18193          	addi	gp,gp,-1459 # a4d <_start-0x7ffff5b3>
80005f28:	00000213          	li	tp,0
80005f2c:	00700113          	li	sp,7
80005f30:	00000013          	nop
80005f34:	800000b7          	lui	ra,0x80000
80005f38:	4020d733          	sra	a4,ra,sp
80005f3c:	00120213          	addi	tp,tp,1 # 1 <_start-0x7fffffff>
80005f40:	00200293          	li	t0,2
80005f44:	fe5214e3          	bne	tp,t0,80005f2c <test_2637+0xc>
80005f48:	ff0003b7          	lui	t2,0xff000
80005f4c:	00770463          	beq	a4,t2,80005f54 <test_2638>
80005f50:	1690206f          	j	800088b8 <fail>

80005f54 <test_2638>:
80005f54:	000011b7          	lui	gp,0x1
80005f58:	a4e18193          	addi	gp,gp,-1458 # a4e <_start-0x7ffff5b2>
80005f5c:	00000213          	li	tp,0
80005f60:	00e00113          	li	sp,14
80005f64:	00000013          	nop
80005f68:	800000b7          	lui	ra,0x80000
80005f6c:	00000013          	nop
80005f70:	4020d733          	sra	a4,ra,sp
80005f74:	00120213          	addi	tp,tp,1 # 1 <_start-0x7fffffff>
80005f78:	00200293          	li	t0,2
80005f7c:	fe5212e3          	bne	tp,t0,80005f60 <test_2638+0xc>
80005f80:	fffe03b7          	lui	t2,0xfffe0
80005f84:	00770463          	beq	a4,t2,80005f8c <test_2639>
80005f88:	1310206f          	j	800088b8 <fail>

80005f8c <test_2639>:
80005f8c:	000011b7          	lui	gp,0x1
80005f90:	a4f18193          	addi	gp,gp,-1457 # a4f <_start-0x7ffff5b1>
80005f94:	00000213          	li	tp,0
80005f98:	01f00113          	li	sp,31
80005f9c:	00000013          	nop
80005fa0:	00000013          	nop
80005fa4:	800000b7          	lui	ra,0x80000
80005fa8:	4020d733          	sra	a4,ra,sp
80005fac:	00120213          	addi	tp,tp,1 # 1 <_start-0x7fffffff>
80005fb0:	00200293          	li	t0,2
80005fb4:	fe5212e3          	bne	tp,t0,80005f98 <test_2639+0xc>
80005fb8:	fff00393          	li	t2,-1
80005fbc:	00770463          	beq	a4,t2,80005fc4 <test_2640>
80005fc0:	0f90206f          	j	800088b8 <fail>

80005fc4 <test_2640>:
80005fc4:	000011b7          	lui	gp,0x1
80005fc8:	a5018193          	addi	gp,gp,-1456 # a50 <_start-0x7ffff5b0>
80005fcc:	00f00093          	li	ra,15
80005fd0:	40105133          	sra	sp,zero,ra
80005fd4:	00000393          	li	t2,0
80005fd8:	00710463          	beq	sp,t2,80005fe0 <test_2641>
80005fdc:	0dd0206f          	j	800088b8 <fail>

80005fe0 <test_2641>:
80005fe0:	000011b7          	lui	gp,0x1
80005fe4:	a5118193          	addi	gp,gp,-1455 # a51 <_start-0x7ffff5af>
80005fe8:	02000093          	li	ra,32
80005fec:	4000d133          	sra	sp,ra,zero
80005ff0:	02000393          	li	t2,32
80005ff4:	00710463          	beq	sp,t2,80005ffc <test_2642>
80005ff8:	0c10206f          	j	800088b8 <fail>

80005ffc <test_2642>:
80005ffc:	000011b7          	lui	gp,0x1
80006000:	a5218193          	addi	gp,gp,-1454 # a52 <_start-0x7ffff5ae>
80006004:	400050b3          	sra	ra,zero,zero
80006008:	00000393          	li	t2,0
8000600c:	00708463          	beq	ra,t2,80006014 <test_2643>
80006010:	0a90206f          	j	800088b8 <fail>

80006014 <test_2643>:
80006014:	000011b7          	lui	gp,0x1
80006018:	a5318193          	addi	gp,gp,-1453 # a53 <_start-0x7ffff5ad>
8000601c:	40000093          	li	ra,1024
80006020:	00001137          	lui	sp,0x1
80006024:	80010113          	addi	sp,sp,-2048 # 800 <_start-0x7ffff800>
80006028:	4020d033          	sra	zero,ra,sp
8000602c:	00000393          	li	t2,0
80006030:	00700463          	beq	zero,t2,80006038 <test_2702>
80006034:	0850206f          	j	800088b8 <fail>

80006038 <test_2702>:
80006038:	000011b7          	lui	gp,0x1
8000603c:	a8e18193          	addi	gp,gp,-1394 # a8e <_start-0x7ffff572>
80006040:	00000093          	li	ra,0
80006044:	4000d713          	srai	a4,ra,0x0
80006048:	00000393          	li	t2,0
8000604c:	00770463          	beq	a4,t2,80006054 <test_2703>
80006050:	0690206f          	j	800088b8 <fail>

80006054 <test_2703>:
80006054:	000011b7          	lui	gp,0x1
80006058:	a8f18193          	addi	gp,gp,-1393 # a8f <_start-0x7ffff571>
8000605c:	800000b7          	lui	ra,0x80000
80006060:	4010d713          	srai	a4,ra,0x1
80006064:	c00003b7          	lui	t2,0xc0000
80006068:	00770463          	beq	a4,t2,80006070 <test_2704>
8000606c:	04d0206f          	j	800088b8 <fail>

80006070 <test_2704>:
80006070:	000011b7          	lui	gp,0x1
80006074:	a9018193          	addi	gp,gp,-1392 # a90 <_start-0x7ffff570>
80006078:	800000b7          	lui	ra,0x80000
8000607c:	4070d713          	srai	a4,ra,0x7
80006080:	ff0003b7          	lui	t2,0xff000
80006084:	00770463          	beq	a4,t2,8000608c <test_2705>
80006088:	0310206f          	j	800088b8 <fail>

8000608c <test_2705>:
8000608c:	000011b7          	lui	gp,0x1
80006090:	a9118193          	addi	gp,gp,-1391 # a91 <_start-0x7ffff56f>
80006094:	800000b7          	lui	ra,0x80000
80006098:	40e0d713          	srai	a4,ra,0xe
8000609c:	fffe03b7          	lui	t2,0xfffe0
800060a0:	00770463          	beq	a4,t2,800060a8 <test_2706>
800060a4:	0150206f          	j	800088b8 <fail>

800060a8 <test_2706>:
800060a8:	000011b7          	lui	gp,0x1
800060ac:	a9218193          	addi	gp,gp,-1390 # a92 <_start-0x7ffff56e>
800060b0:	800000b7          	lui	ra,0x80000
800060b4:	00108093          	addi	ra,ra,1 # 80000001 <_end+0xffff5f31>
800060b8:	41f0d713          	srai	a4,ra,0x1f
800060bc:	fff00393          	li	t2,-1
800060c0:	00770463          	beq	a4,t2,800060c8 <test_2707>
800060c4:	7f40206f          	j	800088b8 <fail>

800060c8 <test_2707>:
800060c8:	000011b7          	lui	gp,0x1
800060cc:	a9318193          	addi	gp,gp,-1389 # a93 <_start-0x7ffff56d>
800060d0:	800000b7          	lui	ra,0x80000
800060d4:	fff08093          	addi	ra,ra,-1 # 7fffffff <_end+0xffff5f2f>
800060d8:	4000d713          	srai	a4,ra,0x0
800060dc:	800003b7          	lui	t2,0x80000
800060e0:	fff38393          	addi	t2,t2,-1 # 7fffffff <_end+0xffff5f2f>
800060e4:	00770463          	beq	a4,t2,800060ec <test_2708>
800060e8:	7d00206f          	j	800088b8 <fail>

800060ec <test_2708>:
800060ec:	000011b7          	lui	gp,0x1
800060f0:	a9418193          	addi	gp,gp,-1388 # a94 <_start-0x7ffff56c>
800060f4:	800000b7          	lui	ra,0x80000
800060f8:	fff08093          	addi	ra,ra,-1 # 7fffffff <_end+0xffff5f2f>
800060fc:	4010d713          	srai	a4,ra,0x1
80006100:	400003b7          	lui	t2,0x40000
80006104:	fff38393          	addi	t2,t2,-1 # 3fffffff <_start-0x40000001>
80006108:	00770463          	beq	a4,t2,80006110 <test_2709>
8000610c:	7ac0206f          	j	800088b8 <fail>

80006110 <test_2709>:
80006110:	000011b7          	lui	gp,0x1
80006114:	a9518193          	addi	gp,gp,-1387 # a95 <_start-0x7ffff56b>
80006118:	800000b7          	lui	ra,0x80000
8000611c:	fff08093          	addi	ra,ra,-1 # 7fffffff <_end+0xffff5f2f>
80006120:	4070d713          	srai	a4,ra,0x7
80006124:	010003b7          	lui	t2,0x1000
80006128:	fff38393          	addi	t2,t2,-1 # ffffff <_start-0x7f000001>
8000612c:	00770463          	beq	a4,t2,80006134 <test_2710>
80006130:	7880206f          	j	800088b8 <fail>

80006134 <test_2710>:
80006134:	000011b7          	lui	gp,0x1
80006138:	a9618193          	addi	gp,gp,-1386 # a96 <_start-0x7ffff56a>
8000613c:	800000b7          	lui	ra,0x80000
80006140:	fff08093          	addi	ra,ra,-1 # 7fffffff <_end+0xffff5f2f>
80006144:	40e0d713          	srai	a4,ra,0xe
80006148:	000203b7          	lui	t2,0x20
8000614c:	fff38393          	addi	t2,t2,-1 # 1ffff <_start-0x7ffe0001>
80006150:	00770463          	beq	a4,t2,80006158 <test_2711>
80006154:	7640206f          	j	800088b8 <fail>

80006158 <test_2711>:
80006158:	000011b7          	lui	gp,0x1
8000615c:	a9718193          	addi	gp,gp,-1385 # a97 <_start-0x7ffff569>
80006160:	800000b7          	lui	ra,0x80000
80006164:	fff08093          	addi	ra,ra,-1 # 7fffffff <_end+0xffff5f2f>
80006168:	41f0d713          	srai	a4,ra,0x1f
8000616c:	00000393          	li	t2,0
80006170:	00770463          	beq	a4,t2,80006178 <test_2712>
80006174:	7440206f          	j	800088b8 <fail>

80006178 <test_2712>:
80006178:	000011b7          	lui	gp,0x1
8000617c:	a9818193          	addi	gp,gp,-1384 # a98 <_start-0x7ffff568>
80006180:	818180b7          	lui	ra,0x81818
80006184:	18108093          	addi	ra,ra,385 # 81818181 <_end+0x180e0b1>
80006188:	4000d713          	srai	a4,ra,0x0
8000618c:	818183b7          	lui	t2,0x81818
80006190:	18138393          	addi	t2,t2,385 # 81818181 <_end+0x180e0b1>
80006194:	00770463          	beq	a4,t2,8000619c <test_2713>
80006198:	7200206f          	j	800088b8 <fail>

8000619c <test_2713>:
8000619c:	000011b7          	lui	gp,0x1
800061a0:	a9918193          	addi	gp,gp,-1383 # a99 <_start-0x7ffff567>
800061a4:	818180b7          	lui	ra,0x81818
800061a8:	18108093          	addi	ra,ra,385 # 81818181 <_end+0x180e0b1>
800061ac:	4010d713          	srai	a4,ra,0x1
800061b0:	c0c0c3b7          	lui	t2,0xc0c0c
800061b4:	0c038393          	addi	t2,t2,192 # c0c0c0c0 <_end+0x40c01ff0>
800061b8:	00770463          	beq	a4,t2,800061c0 <test_2714>
800061bc:	6fc0206f          	j	800088b8 <fail>

800061c0 <test_2714>:
800061c0:	000011b7          	lui	gp,0x1
800061c4:	a9a18193          	addi	gp,gp,-1382 # a9a <_start-0x7ffff566>
800061c8:	818180b7          	lui	ra,0x81818
800061cc:	18108093          	addi	ra,ra,385 # 81818181 <_end+0x180e0b1>
800061d0:	4070d713          	srai	a4,ra,0x7
800061d4:	ff0303b7          	lui	t2,0xff030
800061d8:	30338393          	addi	t2,t2,771 # ff030303 <_end+0x7f026233>
800061dc:	00770463          	beq	a4,t2,800061e4 <test_2715>
800061e0:	6d80206f          	j	800088b8 <fail>

800061e4 <test_2715>:
800061e4:	000011b7          	lui	gp,0x1
800061e8:	a9b18193          	addi	gp,gp,-1381 # a9b <_start-0x7ffff565>
800061ec:	818180b7          	lui	ra,0x81818
800061f0:	18108093          	addi	ra,ra,385 # 81818181 <_end+0x180e0b1>
800061f4:	40e0d713          	srai	a4,ra,0xe
800061f8:	fffe03b7          	lui	t2,0xfffe0
800061fc:	60638393          	addi	t2,t2,1542 # fffe0606 <_end+0x7ffd6536>
80006200:	00770463          	beq	a4,t2,80006208 <test_2716>
80006204:	6b40206f          	j	800088b8 <fail>

80006208 <test_2716>:
80006208:	000011b7          	lui	gp,0x1
8000620c:	a9c18193          	addi	gp,gp,-1380 # a9c <_start-0x7ffff564>
80006210:	818180b7          	lui	ra,0x81818
80006214:	18108093          	addi	ra,ra,385 # 81818181 <_end+0x180e0b1>
80006218:	41f0d713          	srai	a4,ra,0x1f
8000621c:	fff00393          	li	t2,-1
80006220:	00770463          	beq	a4,t2,80006228 <test_2717>
80006224:	6940206f          	j	800088b8 <fail>

80006228 <test_2717>:
80006228:	000011b7          	lui	gp,0x1
8000622c:	a9d18193          	addi	gp,gp,-1379 # a9d <_start-0x7ffff563>
80006230:	800000b7          	lui	ra,0x80000
80006234:	4070d093          	srai	ra,ra,0x7
80006238:	ff0003b7          	lui	t2,0xff000
8000623c:	00708463          	beq	ra,t2,80006244 <test_2718>
80006240:	6780206f          	j	800088b8 <fail>

80006244 <test_2718>:
80006244:	000011b7          	lui	gp,0x1
80006248:	a9e18193          	addi	gp,gp,-1378 # a9e <_start-0x7ffff562>
8000624c:	00000213          	li	tp,0
80006250:	800000b7          	lui	ra,0x80000
80006254:	4070d713          	srai	a4,ra,0x7
80006258:	00070313          	mv	t1,a4
8000625c:	00120213          	addi	tp,tp,1 # 1 <_start-0x7fffffff>
80006260:	00200293          	li	t0,2
80006264:	fe5216e3          	bne	tp,t0,80006250 <test_2718+0xc>
80006268:	ff0003b7          	lui	t2,0xff000
8000626c:	00730463          	beq	t1,t2,80006274 <test_2719>
80006270:	6480206f          	j	800088b8 <fail>

80006274 <test_2719>:
80006274:	000011b7          	lui	gp,0x1
80006278:	a9f18193          	addi	gp,gp,-1377 # a9f <_start-0x7ffff561>
8000627c:	00000213          	li	tp,0
80006280:	800000b7          	lui	ra,0x80000
80006284:	40e0d713          	srai	a4,ra,0xe
80006288:	00000013          	nop
8000628c:	00070313          	mv	t1,a4
80006290:	00120213          	addi	tp,tp,1 # 1 <_start-0x7fffffff>
80006294:	00200293          	li	t0,2
80006298:	fe5214e3          	bne	tp,t0,80006280 <test_2719+0xc>
8000629c:	fffe03b7          	lui	t2,0xfffe0
800062a0:	00730463          	beq	t1,t2,800062a8 <test_2720>
800062a4:	6140206f          	j	800088b8 <fail>

800062a8 <test_2720>:
800062a8:	000011b7          	lui	gp,0x1
800062ac:	aa018193          	addi	gp,gp,-1376 # aa0 <_start-0x7ffff560>
800062b0:	00000213          	li	tp,0
800062b4:	800000b7          	lui	ra,0x80000
800062b8:	00108093          	addi	ra,ra,1 # 80000001 <_end+0xffff5f31>
800062bc:	41f0d713          	srai	a4,ra,0x1f
800062c0:	00000013          	nop
800062c4:	00000013          	nop
800062c8:	00070313          	mv	t1,a4
800062cc:	00120213          	addi	tp,tp,1 # 1 <_start-0x7fffffff>
800062d0:	00200293          	li	t0,2
800062d4:	fe5210e3          	bne	tp,t0,800062b4 <test_2720+0xc>
800062d8:	fff00393          	li	t2,-1
800062dc:	00730463          	beq	t1,t2,800062e4 <test_2721>
800062e0:	5d80206f          	j	800088b8 <fail>

800062e4 <test_2721>:
800062e4:	000011b7          	lui	gp,0x1
800062e8:	aa118193          	addi	gp,gp,-1375 # aa1 <_start-0x7ffff55f>
800062ec:	00000213          	li	tp,0
800062f0:	800000b7          	lui	ra,0x80000
800062f4:	4070d713          	srai	a4,ra,0x7
800062f8:	00120213          	addi	tp,tp,1 # 1 <_start-0x7fffffff>
800062fc:	00200293          	li	t0,2
80006300:	fe5218e3          	bne	tp,t0,800062f0 <test_2721+0xc>
80006304:	ff0003b7          	lui	t2,0xff000
80006308:	00770463          	beq	a4,t2,80006310 <test_2722>
8000630c:	5ac0206f          	j	800088b8 <fail>

80006310 <test_2722>:
80006310:	000011b7          	lui	gp,0x1
80006314:	aa218193          	addi	gp,gp,-1374 # aa2 <_start-0x7ffff55e>
80006318:	00000213          	li	tp,0
8000631c:	800000b7          	lui	ra,0x80000
80006320:	00000013          	nop
80006324:	40e0d713          	srai	a4,ra,0xe
80006328:	00120213          	addi	tp,tp,1 # 1 <_start-0x7fffffff>
8000632c:	00200293          	li	t0,2
80006330:	fe5216e3          	bne	tp,t0,8000631c <test_2722+0xc>
80006334:	fffe03b7          	lui	t2,0xfffe0
80006338:	00770463          	beq	a4,t2,80006340 <test_2723>
8000633c:	57c0206f          	j	800088b8 <fail>

80006340 <test_2723>:
80006340:	000011b7          	lui	gp,0x1
80006344:	aa318193          	addi	gp,gp,-1373 # aa3 <_start-0x7ffff55d>
80006348:	00000213          	li	tp,0
8000634c:	800000b7          	lui	ra,0x80000
80006350:	00108093          	addi	ra,ra,1 # 80000001 <_end+0xffff5f31>
80006354:	00000013          	nop
80006358:	00000013          	nop
8000635c:	41f0d713          	srai	a4,ra,0x1f
80006360:	00120213          	addi	tp,tp,1 # 1 <_start-0x7fffffff>
80006364:	00200293          	li	t0,2
80006368:	fe5212e3          	bne	tp,t0,8000634c <test_2723+0xc>
8000636c:	fff00393          	li	t2,-1
80006370:	00770463          	beq	a4,t2,80006378 <test_2724>
80006374:	5440206f          	j	800088b8 <fail>

80006378 <test_2724>:
80006378:	000011b7          	lui	gp,0x1
8000637c:	aa418193          	addi	gp,gp,-1372 # aa4 <_start-0x7ffff55c>
80006380:	40405093          	srai	ra,zero,0x4
80006384:	00000393          	li	t2,0
80006388:	00708463          	beq	ra,t2,80006390 <test_2725>
8000638c:	52c0206f          	j	800088b8 <fail>

80006390 <test_2725>:
80006390:	000011b7          	lui	gp,0x1
80006394:	aa518193          	addi	gp,gp,-1371 # aa5 <_start-0x7ffff55b>
80006398:	02100093          	li	ra,33
8000639c:	40a0d013          	srai	zero,ra,0xa
800063a0:	00000393          	li	t2,0
800063a4:	00700463          	beq	zero,t2,800063ac <test_2802>
800063a8:	5100206f          	j	800088b8 <fail>

800063ac <test_2802>:
800063ac:	000011b7          	lui	gp,0x1
800063b0:	af218193          	addi	gp,gp,-1294 # af2 <_start-0x7ffff50e>
800063b4:	800000b7          	lui	ra,0x80000
800063b8:	00000113          	li	sp,0
800063bc:	0020d733          	srl	a4,ra,sp
800063c0:	800003b7          	lui	t2,0x80000
800063c4:	00770463          	beq	a4,t2,800063cc <test_2803>
800063c8:	4f00206f          	j	800088b8 <fail>

800063cc <test_2803>:
800063cc:	000011b7          	lui	gp,0x1
800063d0:	af318193          	addi	gp,gp,-1293 # af3 <_start-0x7ffff50d>
800063d4:	800000b7          	lui	ra,0x80000
800063d8:	00100113          	li	sp,1
800063dc:	0020d733          	srl	a4,ra,sp
800063e0:	400003b7          	lui	t2,0x40000
800063e4:	00770463          	beq	a4,t2,800063ec <test_2804>
800063e8:	4d00206f          	j	800088b8 <fail>

800063ec <test_2804>:
800063ec:	000011b7          	lui	gp,0x1
800063f0:	af418193          	addi	gp,gp,-1292 # af4 <_start-0x7ffff50c>
800063f4:	800000b7          	lui	ra,0x80000
800063f8:	00700113          	li	sp,7
800063fc:	0020d733          	srl	a4,ra,sp
80006400:	010003b7          	lui	t2,0x1000
80006404:	00770463          	beq	a4,t2,8000640c <test_2805>
80006408:	4b00206f          	j	800088b8 <fail>

8000640c <test_2805>:
8000640c:	000011b7          	lui	gp,0x1
80006410:	af518193          	addi	gp,gp,-1291 # af5 <_start-0x7ffff50b>
80006414:	800000b7          	lui	ra,0x80000
80006418:	00e00113          	li	sp,14
8000641c:	0020d733          	srl	a4,ra,sp
80006420:	000203b7          	lui	t2,0x20
80006424:	00770463          	beq	a4,t2,8000642c <test_2806>
80006428:	4900206f          	j	800088b8 <fail>

8000642c <test_2806>:
8000642c:	000011b7          	lui	gp,0x1
80006430:	af618193          	addi	gp,gp,-1290 # af6 <_start-0x7ffff50a>
80006434:	800000b7          	lui	ra,0x80000
80006438:	00108093          	addi	ra,ra,1 # 80000001 <_end+0xffff5f31>
8000643c:	01f00113          	li	sp,31
80006440:	0020d733          	srl	a4,ra,sp
80006444:	00100393          	li	t2,1
80006448:	00770463          	beq	a4,t2,80006450 <test_2807>
8000644c:	46c0206f          	j	800088b8 <fail>

80006450 <test_2807>:
80006450:	000011b7          	lui	gp,0x1
80006454:	af718193          	addi	gp,gp,-1289 # af7 <_start-0x7ffff509>
80006458:	fff00093          	li	ra,-1
8000645c:	00000113          	li	sp,0
80006460:	0020d733          	srl	a4,ra,sp
80006464:	fff00393          	li	t2,-1
80006468:	00770463          	beq	a4,t2,80006470 <test_2808>
8000646c:	44c0206f          	j	800088b8 <fail>

80006470 <test_2808>:
80006470:	000011b7          	lui	gp,0x1
80006474:	af818193          	addi	gp,gp,-1288 # af8 <_start-0x7ffff508>
80006478:	fff00093          	li	ra,-1
8000647c:	00100113          	li	sp,1
80006480:	0020d733          	srl	a4,ra,sp
80006484:	800003b7          	lui	t2,0x80000
80006488:	fff38393          	addi	t2,t2,-1 # 7fffffff <_end+0xffff5f2f>
8000648c:	00770463          	beq	a4,t2,80006494 <test_2809>
80006490:	4280206f          	j	800088b8 <fail>

80006494 <test_2809>:
80006494:	000011b7          	lui	gp,0x1
80006498:	af918193          	addi	gp,gp,-1287 # af9 <_start-0x7ffff507>
8000649c:	fff00093          	li	ra,-1
800064a0:	00700113          	li	sp,7
800064a4:	0020d733          	srl	a4,ra,sp
800064a8:	020003b7          	lui	t2,0x2000
800064ac:	fff38393          	addi	t2,t2,-1 # 1ffffff <_start-0x7e000001>
800064b0:	00770463          	beq	a4,t2,800064b8 <test_2810>
800064b4:	4040206f          	j	800088b8 <fail>

800064b8 <test_2810>:
800064b8:	000011b7          	lui	gp,0x1
800064bc:	afa18193          	addi	gp,gp,-1286 # afa <_start-0x7ffff506>
800064c0:	fff00093          	li	ra,-1
800064c4:	00e00113          	li	sp,14
800064c8:	0020d733          	srl	a4,ra,sp
800064cc:	000403b7          	lui	t2,0x40
800064d0:	fff38393          	addi	t2,t2,-1 # 3ffff <_start-0x7ffc0001>
800064d4:	00770463          	beq	a4,t2,800064dc <test_2811>
800064d8:	3e00206f          	j	800088b8 <fail>

800064dc <test_2811>:
800064dc:	000011b7          	lui	gp,0x1
800064e0:	afb18193          	addi	gp,gp,-1285 # afb <_start-0x7ffff505>
800064e4:	fff00093          	li	ra,-1
800064e8:	01f00113          	li	sp,31
800064ec:	0020d733          	srl	a4,ra,sp
800064f0:	00100393          	li	t2,1
800064f4:	00770463          	beq	a4,t2,800064fc <test_2812>
800064f8:	3c00206f          	j	800088b8 <fail>

800064fc <test_2812>:
800064fc:	000011b7          	lui	gp,0x1
80006500:	afc18193          	addi	gp,gp,-1284 # afc <_start-0x7ffff504>
80006504:	212120b7          	lui	ra,0x21212
80006508:	12108093          	addi	ra,ra,289 # 21212121 <_start-0x5edededf>
8000650c:	00000113          	li	sp,0
80006510:	0020d733          	srl	a4,ra,sp
80006514:	212123b7          	lui	t2,0x21212
80006518:	12138393          	addi	t2,t2,289 # 21212121 <_start-0x5edededf>
8000651c:	00770463          	beq	a4,t2,80006524 <test_2813>
80006520:	3980206f          	j	800088b8 <fail>

80006524 <test_2813>:
80006524:	000011b7          	lui	gp,0x1
80006528:	afd18193          	addi	gp,gp,-1283 # afd <_start-0x7ffff503>
8000652c:	212120b7          	lui	ra,0x21212
80006530:	12108093          	addi	ra,ra,289 # 21212121 <_start-0x5edededf>
80006534:	00100113          	li	sp,1
80006538:	0020d733          	srl	a4,ra,sp
8000653c:	109093b7          	lui	t2,0x10909
80006540:	09038393          	addi	t2,t2,144 # 10909090 <_start-0x6f6f6f70>
80006544:	00770463          	beq	a4,t2,8000654c <test_2814>
80006548:	3700206f          	j	800088b8 <fail>

8000654c <test_2814>:
8000654c:	000011b7          	lui	gp,0x1
80006550:	afe18193          	addi	gp,gp,-1282 # afe <_start-0x7ffff502>
80006554:	212120b7          	lui	ra,0x21212
80006558:	12108093          	addi	ra,ra,289 # 21212121 <_start-0x5edededf>
8000655c:	00700113          	li	sp,7
80006560:	0020d733          	srl	a4,ra,sp
80006564:	004243b7          	lui	t2,0x424
80006568:	24238393          	addi	t2,t2,578 # 424242 <_start-0x7fbdbdbe>
8000656c:	00770463          	beq	a4,t2,80006574 <test_2815>
80006570:	3480206f          	j	800088b8 <fail>

80006574 <test_2815>:
80006574:	000011b7          	lui	gp,0x1
80006578:	aff18193          	addi	gp,gp,-1281 # aff <_start-0x7ffff501>
8000657c:	212120b7          	lui	ra,0x21212
80006580:	12108093          	addi	ra,ra,289 # 21212121 <_start-0x5edededf>
80006584:	00e00113          	li	sp,14
80006588:	0020d733          	srl	a4,ra,sp
8000658c:	000083b7          	lui	t2,0x8
80006590:	48438393          	addi	t2,t2,1156 # 8484 <_start-0x7fff7b7c>
80006594:	00770463          	beq	a4,t2,8000659c <test_2816>
80006598:	3200206f          	j	800088b8 <fail>

8000659c <test_2816>:
8000659c:	000011b7          	lui	gp,0x1
800065a0:	b0018193          	addi	gp,gp,-1280 # b00 <_start-0x7ffff500>
800065a4:	212120b7          	lui	ra,0x21212
800065a8:	12108093          	addi	ra,ra,289 # 21212121 <_start-0x5edededf>
800065ac:	01f00113          	li	sp,31
800065b0:	0020d733          	srl	a4,ra,sp
800065b4:	00000393          	li	t2,0
800065b8:	00770463          	beq	a4,t2,800065c0 <test_2817>
800065bc:	2fc0206f          	j	800088b8 <fail>

800065c0 <test_2817>:
800065c0:	000011b7          	lui	gp,0x1
800065c4:	b0118193          	addi	gp,gp,-1279 # b01 <_start-0x7ffff4ff>
800065c8:	212120b7          	lui	ra,0x21212
800065cc:	12108093          	addi	ra,ra,289 # 21212121 <_start-0x5edededf>
800065d0:	fc000113          	li	sp,-64
800065d4:	0020d733          	srl	a4,ra,sp
800065d8:	212123b7          	lui	t2,0x21212
800065dc:	12138393          	addi	t2,t2,289 # 21212121 <_start-0x5edededf>
800065e0:	00770463          	beq	a4,t2,800065e8 <test_2818>
800065e4:	2d40206f          	j	800088b8 <fail>

800065e8 <test_2818>:
800065e8:	000011b7          	lui	gp,0x1
800065ec:	b0218193          	addi	gp,gp,-1278 # b02 <_start-0x7ffff4fe>
800065f0:	212120b7          	lui	ra,0x21212
800065f4:	12108093          	addi	ra,ra,289 # 21212121 <_start-0x5edededf>
800065f8:	fc100113          	li	sp,-63
800065fc:	0020d733          	srl	a4,ra,sp
80006600:	109093b7          	lui	t2,0x10909
80006604:	09038393          	addi	t2,t2,144 # 10909090 <_start-0x6f6f6f70>
80006608:	00770463          	beq	a4,t2,80006610 <test_2819>
8000660c:	2ac0206f          	j	800088b8 <fail>

80006610 <test_2819>:
80006610:	000011b7          	lui	gp,0x1
80006614:	b0318193          	addi	gp,gp,-1277 # b03 <_start-0x7ffff4fd>
80006618:	212120b7          	lui	ra,0x21212
8000661c:	12108093          	addi	ra,ra,289 # 21212121 <_start-0x5edededf>
80006620:	fc700113          	li	sp,-57
80006624:	0020d733          	srl	a4,ra,sp
80006628:	004243b7          	lui	t2,0x424
8000662c:	24238393          	addi	t2,t2,578 # 424242 <_start-0x7fbdbdbe>
80006630:	00770463          	beq	a4,t2,80006638 <test_2820>
80006634:	2840206f          	j	800088b8 <fail>

80006638 <test_2820>:
80006638:	000011b7          	lui	gp,0x1
8000663c:	b0418193          	addi	gp,gp,-1276 # b04 <_start-0x7ffff4fc>
80006640:	212120b7          	lui	ra,0x21212
80006644:	12108093          	addi	ra,ra,289 # 21212121 <_start-0x5edededf>
80006648:	fce00113          	li	sp,-50
8000664c:	0020d733          	srl	a4,ra,sp
80006650:	000083b7          	lui	t2,0x8
80006654:	48438393          	addi	t2,t2,1156 # 8484 <_start-0x7fff7b7c>
80006658:	00770463          	beq	a4,t2,80006660 <test_2821>
8000665c:	25c0206f          	j	800088b8 <fail>

80006660 <test_2821>:
80006660:	000011b7          	lui	gp,0x1
80006664:	b0518193          	addi	gp,gp,-1275 # b05 <_start-0x7ffff4fb>
80006668:	212120b7          	lui	ra,0x21212
8000666c:	12108093          	addi	ra,ra,289 # 21212121 <_start-0x5edededf>
80006670:	fff00113          	li	sp,-1
80006674:	0020d733          	srl	a4,ra,sp
80006678:	00000393          	li	t2,0
8000667c:	00770463          	beq	a4,t2,80006684 <test_2822>
80006680:	2380206f          	j	800088b8 <fail>

80006684 <test_2822>:
80006684:	000011b7          	lui	gp,0x1
80006688:	b0618193          	addi	gp,gp,-1274 # b06 <_start-0x7ffff4fa>
8000668c:	800000b7          	lui	ra,0x80000
80006690:	00700113          	li	sp,7
80006694:	0020d0b3          	srl	ra,ra,sp
80006698:	010003b7          	lui	t2,0x1000
8000669c:	00708463          	beq	ra,t2,800066a4 <test_2823>
800066a0:	2180206f          	j	800088b8 <fail>

800066a4 <test_2823>:
800066a4:	000011b7          	lui	gp,0x1
800066a8:	b0718193          	addi	gp,gp,-1273 # b07 <_start-0x7ffff4f9>
800066ac:	800000b7          	lui	ra,0x80000
800066b0:	00e00113          	li	sp,14
800066b4:	0020d133          	srl	sp,ra,sp
800066b8:	000203b7          	lui	t2,0x20
800066bc:	00710463          	beq	sp,t2,800066c4 <test_2824>
800066c0:	1f80206f          	j	800088b8 <fail>

800066c4 <test_2824>:
800066c4:	000011b7          	lui	gp,0x1
800066c8:	b0818193          	addi	gp,gp,-1272 # b08 <_start-0x7ffff4f8>
800066cc:	00700093          	li	ra,7
800066d0:	0010d0b3          	srl	ra,ra,ra
800066d4:	00000393          	li	t2,0
800066d8:	00708463          	beq	ra,t2,800066e0 <test_2825>
800066dc:	1dc0206f          	j	800088b8 <fail>

800066e0 <test_2825>:
800066e0:	000011b7          	lui	gp,0x1
800066e4:	b0918193          	addi	gp,gp,-1271 # b09 <_start-0x7ffff4f7>
800066e8:	00000213          	li	tp,0
800066ec:	800000b7          	lui	ra,0x80000
800066f0:	00700113          	li	sp,7
800066f4:	0020d733          	srl	a4,ra,sp
800066f8:	00070313          	mv	t1,a4
800066fc:	00120213          	addi	tp,tp,1 # 1 <_start-0x7fffffff>
80006700:	00200293          	li	t0,2
80006704:	fe5214e3          	bne	tp,t0,800066ec <test_2825+0xc>
80006708:	010003b7          	lui	t2,0x1000
8000670c:	00730463          	beq	t1,t2,80006714 <test_2826>
80006710:	1a80206f          	j	800088b8 <fail>

80006714 <test_2826>:
80006714:	000011b7          	lui	gp,0x1
80006718:	b0a18193          	addi	gp,gp,-1270 # b0a <_start-0x7ffff4f6>
8000671c:	00000213          	li	tp,0
80006720:	800000b7          	lui	ra,0x80000
80006724:	00e00113          	li	sp,14
80006728:	0020d733          	srl	a4,ra,sp
8000672c:	00000013          	nop
80006730:	00070313          	mv	t1,a4
80006734:	00120213          	addi	tp,tp,1 # 1 <_start-0x7fffffff>
80006738:	00200293          	li	t0,2
8000673c:	fe5212e3          	bne	tp,t0,80006720 <test_2826+0xc>
80006740:	000203b7          	lui	t2,0x20
80006744:	00730463          	beq	t1,t2,8000674c <test_2827>
80006748:	1700206f          	j	800088b8 <fail>

8000674c <test_2827>:
8000674c:	000011b7          	lui	gp,0x1
80006750:	b0b18193          	addi	gp,gp,-1269 # b0b <_start-0x7ffff4f5>
80006754:	00000213          	li	tp,0
80006758:	800000b7          	lui	ra,0x80000
8000675c:	01f00113          	li	sp,31
80006760:	0020d733          	srl	a4,ra,sp
80006764:	00000013          	nop
80006768:	00000013          	nop
8000676c:	00070313          	mv	t1,a4
80006770:	00120213          	addi	tp,tp,1 # 1 <_start-0x7fffffff>
80006774:	00200293          	li	t0,2
80006778:	fe5210e3          	bne	tp,t0,80006758 <test_2827+0xc>
8000677c:	00100393          	li	t2,1
80006780:	00730463          	beq	t1,t2,80006788 <test_2828>
80006784:	1340206f          	j	800088b8 <fail>

80006788 <test_2828>:
80006788:	000011b7          	lui	gp,0x1
8000678c:	b0c18193          	addi	gp,gp,-1268 # b0c <_start-0x7ffff4f4>
80006790:	00000213          	li	tp,0
80006794:	800000b7          	lui	ra,0x80000
80006798:	00700113          	li	sp,7
8000679c:	0020d733          	srl	a4,ra,sp
800067a0:	00120213          	addi	tp,tp,1 # 1 <_start-0x7fffffff>
800067a4:	00200293          	li	t0,2
800067a8:	fe5216e3          	bne	tp,t0,80006794 <test_2828+0xc>
800067ac:	010003b7          	lui	t2,0x1000
800067b0:	00770463          	beq	a4,t2,800067b8 <test_2829>
800067b4:	1040206f          	j	800088b8 <fail>

800067b8 <test_2829>:
800067b8:	000011b7          	lui	gp,0x1
800067bc:	b0d18193          	addi	gp,gp,-1267 # b0d <_start-0x7ffff4f3>
800067c0:	00000213          	li	tp,0
800067c4:	800000b7          	lui	ra,0x80000
800067c8:	00e00113          	li	sp,14
800067cc:	00000013          	nop
800067d0:	0020d733          	srl	a4,ra,sp
800067d4:	00120213          	addi	tp,tp,1 # 1 <_start-0x7fffffff>
800067d8:	00200293          	li	t0,2
800067dc:	fe5214e3          	bne	tp,t0,800067c4 <test_2829+0xc>
800067e0:	000203b7          	lui	t2,0x20
800067e4:	00770463          	beq	a4,t2,800067ec <test_2830>
800067e8:	0d00206f          	j	800088b8 <fail>

800067ec <test_2830>:
800067ec:	000011b7          	lui	gp,0x1
800067f0:	b0e18193          	addi	gp,gp,-1266 # b0e <_start-0x7ffff4f2>
800067f4:	00000213          	li	tp,0
800067f8:	800000b7          	lui	ra,0x80000
800067fc:	01f00113          	li	sp,31
80006800:	00000013          	nop
80006804:	00000013          	nop
80006808:	0020d733          	srl	a4,ra,sp
8000680c:	00120213          	addi	tp,tp,1 # 1 <_start-0x7fffffff>
80006810:	00200293          	li	t0,2
80006814:	fe5212e3          	bne	tp,t0,800067f8 <test_2830+0xc>
80006818:	00100393          	li	t2,1
8000681c:	00770463          	beq	a4,t2,80006824 <test_2831>
80006820:	0980206f          	j	800088b8 <fail>

80006824 <test_2831>:
80006824:	000011b7          	lui	gp,0x1
80006828:	b0f18193          	addi	gp,gp,-1265 # b0f <_start-0x7ffff4f1>
8000682c:	00000213          	li	tp,0
80006830:	800000b7          	lui	ra,0x80000
80006834:	00000013          	nop
80006838:	00700113          	li	sp,7
8000683c:	0020d733          	srl	a4,ra,sp
80006840:	00120213          	addi	tp,tp,1 # 1 <_start-0x7fffffff>
80006844:	00200293          	li	t0,2
80006848:	fe5214e3          	bne	tp,t0,80006830 <test_2831+0xc>
8000684c:	010003b7          	lui	t2,0x1000
80006850:	00770463          	beq	a4,t2,80006858 <test_2832>
80006854:	0640206f          	j	800088b8 <fail>

80006858 <test_2832>:
80006858:	000011b7          	lui	gp,0x1
8000685c:	b1018193          	addi	gp,gp,-1264 # b10 <_start-0x7ffff4f0>
80006860:	00000213          	li	tp,0
80006864:	800000b7          	lui	ra,0x80000
80006868:	00000013          	nop
8000686c:	00e00113          	li	sp,14
80006870:	00000013          	nop
80006874:	0020d733          	srl	a4,ra,sp
80006878:	00120213          	addi	tp,tp,1 # 1 <_start-0x7fffffff>
8000687c:	00200293          	li	t0,2
80006880:	fe5212e3          	bne	tp,t0,80006864 <test_2832+0xc>
80006884:	000203b7          	lui	t2,0x20
80006888:	00770463          	beq	a4,t2,80006890 <test_2833>
8000688c:	02c0206f          	j	800088b8 <fail>

80006890 <test_2833>:
80006890:	000011b7          	lui	gp,0x1
80006894:	b1118193          	addi	gp,gp,-1263 # b11 <_start-0x7ffff4ef>
80006898:	00000213          	li	tp,0
8000689c:	800000b7          	lui	ra,0x80000
800068a0:	00000013          	nop
800068a4:	00000013          	nop
800068a8:	01f00113          	li	sp,31
800068ac:	0020d733          	srl	a4,ra,sp
800068b0:	00120213          	addi	tp,tp,1 # 1 <_start-0x7fffffff>
800068b4:	00200293          	li	t0,2
800068b8:	fe5212e3          	bne	tp,t0,8000689c <test_2833+0xc>
800068bc:	00100393          	li	t2,1
800068c0:	00770463          	beq	a4,t2,800068c8 <test_2834>
800068c4:	7f50106f          	j	800088b8 <fail>

800068c8 <test_2834>:
800068c8:	000011b7          	lui	gp,0x1
800068cc:	b1218193          	addi	gp,gp,-1262 # b12 <_start-0x7ffff4ee>
800068d0:	00000213          	li	tp,0
800068d4:	00700113          	li	sp,7
800068d8:	800000b7          	lui	ra,0x80000
800068dc:	0020d733          	srl	a4,ra,sp
800068e0:	00120213          	addi	tp,tp,1 # 1 <_start-0x7fffffff>
800068e4:	00200293          	li	t0,2
800068e8:	fe5216e3          	bne	tp,t0,800068d4 <test_2834+0xc>
800068ec:	010003b7          	lui	t2,0x1000
800068f0:	00770463          	beq	a4,t2,800068f8 <test_2835>
800068f4:	7c50106f          	j	800088b8 <fail>

800068f8 <test_2835>:
800068f8:	000011b7          	lui	gp,0x1
800068fc:	b1318193          	addi	gp,gp,-1261 # b13 <_start-0x7ffff4ed>
80006900:	00000213          	li	tp,0
80006904:	00e00113          	li	sp,14
80006908:	800000b7          	lui	ra,0x80000
8000690c:	00000013          	nop
80006910:	0020d733          	srl	a4,ra,sp
80006914:	00120213          	addi	tp,tp,1 # 1 <_start-0x7fffffff>
80006918:	00200293          	li	t0,2
8000691c:	fe5214e3          	bne	tp,t0,80006904 <test_2835+0xc>
80006920:	000203b7          	lui	t2,0x20
80006924:	00770463          	beq	a4,t2,8000692c <test_2836>
80006928:	7910106f          	j	800088b8 <fail>

8000692c <test_2836>:
8000692c:	000011b7          	lui	gp,0x1
80006930:	b1418193          	addi	gp,gp,-1260 # b14 <_start-0x7ffff4ec>
80006934:	00000213          	li	tp,0
80006938:	01f00113          	li	sp,31
8000693c:	800000b7          	lui	ra,0x80000
80006940:	00000013          	nop
80006944:	00000013          	nop
80006948:	0020d733          	srl	a4,ra,sp
8000694c:	00120213          	addi	tp,tp,1 # 1 <_start-0x7fffffff>
80006950:	00200293          	li	t0,2
80006954:	fe5212e3          	bne	tp,t0,80006938 <test_2836+0xc>
80006958:	00100393          	li	t2,1
8000695c:	00770463          	beq	a4,t2,80006964 <test_2837>
80006960:	7590106f          	j	800088b8 <fail>

80006964 <test_2837>:
80006964:	000011b7          	lui	gp,0x1
80006968:	b1518193          	addi	gp,gp,-1259 # b15 <_start-0x7ffff4eb>
8000696c:	00000213          	li	tp,0
80006970:	00700113          	li	sp,7
80006974:	00000013          	nop
80006978:	800000b7          	lui	ra,0x80000
8000697c:	0020d733          	srl	a4,ra,sp
80006980:	00120213          	addi	tp,tp,1 # 1 <_start-0x7fffffff>
80006984:	00200293          	li	t0,2
80006988:	fe5214e3          	bne	tp,t0,80006970 <test_2837+0xc>
8000698c:	010003b7          	lui	t2,0x1000
80006990:	00770463          	beq	a4,t2,80006998 <test_2838>
80006994:	7250106f          	j	800088b8 <fail>

80006998 <test_2838>:
80006998:	000011b7          	lui	gp,0x1
8000699c:	b1618193          	addi	gp,gp,-1258 # b16 <_start-0x7ffff4ea>
800069a0:	00000213          	li	tp,0
800069a4:	00e00113          	li	sp,14
800069a8:	00000013          	nop
800069ac:	800000b7          	lui	ra,0x80000
800069b0:	00000013          	nop
800069b4:	0020d733          	srl	a4,ra,sp
800069b8:	00120213          	addi	tp,tp,1 # 1 <_start-0x7fffffff>
800069bc:	00200293          	li	t0,2
800069c0:	fe5212e3          	bne	tp,t0,800069a4 <test_2838+0xc>
800069c4:	000203b7          	lui	t2,0x20
800069c8:	00770463          	beq	a4,t2,800069d0 <test_2839>
800069cc:	6ed0106f          	j	800088b8 <fail>

800069d0 <test_2839>:
800069d0:	000011b7          	lui	gp,0x1
800069d4:	b1718193          	addi	gp,gp,-1257 # b17 <_start-0x7ffff4e9>
800069d8:	00000213          	li	tp,0
800069dc:	01f00113          	li	sp,31
800069e0:	00000013          	nop
800069e4:	00000013          	nop
800069e8:	800000b7          	lui	ra,0x80000
800069ec:	0020d733          	srl	a4,ra,sp
800069f0:	00120213          	addi	tp,tp,1 # 1 <_start-0x7fffffff>
800069f4:	00200293          	li	t0,2
800069f8:	fe5212e3          	bne	tp,t0,800069dc <test_2839+0xc>
800069fc:	00100393          	li	t2,1
80006a00:	00770463          	beq	a4,t2,80006a08 <test_2840>
80006a04:	6b50106f          	j	800088b8 <fail>

80006a08 <test_2840>:
80006a08:	000011b7          	lui	gp,0x1
80006a0c:	b1818193          	addi	gp,gp,-1256 # b18 <_start-0x7ffff4e8>
80006a10:	00f00093          	li	ra,15
80006a14:	00105133          	srl	sp,zero,ra
80006a18:	00000393          	li	t2,0
80006a1c:	00710463          	beq	sp,t2,80006a24 <test_2841>
80006a20:	6990106f          	j	800088b8 <fail>

80006a24 <test_2841>:
80006a24:	000011b7          	lui	gp,0x1
80006a28:	b1918193          	addi	gp,gp,-1255 # b19 <_start-0x7ffff4e7>
80006a2c:	02000093          	li	ra,32
80006a30:	0000d133          	srl	sp,ra,zero
80006a34:	02000393          	li	t2,32
80006a38:	00710463          	beq	sp,t2,80006a40 <test_2842>
80006a3c:	67d0106f          	j	800088b8 <fail>

80006a40 <test_2842>:
80006a40:	000011b7          	lui	gp,0x1
80006a44:	b1a18193          	addi	gp,gp,-1254 # b1a <_start-0x7ffff4e6>
80006a48:	000050b3          	srl	ra,zero,zero
80006a4c:	00000393          	li	t2,0
80006a50:	00708463          	beq	ra,t2,80006a58 <test_2843>
80006a54:	6650106f          	j	800088b8 <fail>

80006a58 <test_2843>:
80006a58:	000011b7          	lui	gp,0x1
80006a5c:	b1b18193          	addi	gp,gp,-1253 # b1b <_start-0x7ffff4e5>
80006a60:	40000093          	li	ra,1024
80006a64:	00001137          	lui	sp,0x1
80006a68:	80010113          	addi	sp,sp,-2048 # 800 <_start-0x7ffff800>
80006a6c:	0020d033          	srl	zero,ra,sp
80006a70:	00000393          	li	t2,0
80006a74:	00700463          	beq	zero,t2,80006a7c <test_2902>
80006a78:	6410106f          	j	800088b8 <fail>

80006a7c <test_2902>:
80006a7c:	000011b7          	lui	gp,0x1
80006a80:	b5618193          	addi	gp,gp,-1194 # b56 <_start-0x7ffff4aa>
80006a84:	800000b7          	lui	ra,0x80000
80006a88:	0000d713          	srli	a4,ra,0x0
80006a8c:	800003b7          	lui	t2,0x80000
80006a90:	00770463          	beq	a4,t2,80006a98 <test_2903>
80006a94:	6250106f          	j	800088b8 <fail>

80006a98 <test_2903>:
80006a98:	000011b7          	lui	gp,0x1
80006a9c:	b5718193          	addi	gp,gp,-1193 # b57 <_start-0x7ffff4a9>
80006aa0:	800000b7          	lui	ra,0x80000
80006aa4:	0010d713          	srli	a4,ra,0x1
80006aa8:	400003b7          	lui	t2,0x40000
80006aac:	00770463          	beq	a4,t2,80006ab4 <test_2904>
80006ab0:	6090106f          	j	800088b8 <fail>

80006ab4 <test_2904>:
80006ab4:	000011b7          	lui	gp,0x1
80006ab8:	b5818193          	addi	gp,gp,-1192 # b58 <_start-0x7ffff4a8>
80006abc:	800000b7          	lui	ra,0x80000
80006ac0:	0070d713          	srli	a4,ra,0x7
80006ac4:	010003b7          	lui	t2,0x1000
80006ac8:	00770463          	beq	a4,t2,80006ad0 <test_2905>
80006acc:	5ed0106f          	j	800088b8 <fail>

80006ad0 <test_2905>:
80006ad0:	000011b7          	lui	gp,0x1
80006ad4:	b5918193          	addi	gp,gp,-1191 # b59 <_start-0x7ffff4a7>
80006ad8:	800000b7          	lui	ra,0x80000
80006adc:	00e0d713          	srli	a4,ra,0xe
80006ae0:	000203b7          	lui	t2,0x20
80006ae4:	00770463          	beq	a4,t2,80006aec <test_2906>
80006ae8:	5d10106f          	j	800088b8 <fail>

80006aec <test_2906>:
80006aec:	000011b7          	lui	gp,0x1
80006af0:	b5a18193          	addi	gp,gp,-1190 # b5a <_start-0x7ffff4a6>
80006af4:	800000b7          	lui	ra,0x80000
80006af8:	00108093          	addi	ra,ra,1 # 80000001 <_end+0xffff5f31>
80006afc:	01f0d713          	srli	a4,ra,0x1f
80006b00:	00100393          	li	t2,1
80006b04:	00770463          	beq	a4,t2,80006b0c <test_2907>
80006b08:	5b10106f          	j	800088b8 <fail>

80006b0c <test_2907>:
80006b0c:	000011b7          	lui	gp,0x1
80006b10:	b5b18193          	addi	gp,gp,-1189 # b5b <_start-0x7ffff4a5>
80006b14:	fff00093          	li	ra,-1
80006b18:	0000d713          	srli	a4,ra,0x0
80006b1c:	fff00393          	li	t2,-1
80006b20:	00770463          	beq	a4,t2,80006b28 <test_2908>
80006b24:	5950106f          	j	800088b8 <fail>

80006b28 <test_2908>:
80006b28:	000011b7          	lui	gp,0x1
80006b2c:	b5c18193          	addi	gp,gp,-1188 # b5c <_start-0x7ffff4a4>
80006b30:	fff00093          	li	ra,-1
80006b34:	0010d713          	srli	a4,ra,0x1
80006b38:	800003b7          	lui	t2,0x80000
80006b3c:	fff38393          	addi	t2,t2,-1 # 7fffffff <_end+0xffff5f2f>
80006b40:	00770463          	beq	a4,t2,80006b48 <test_2909>
80006b44:	5750106f          	j	800088b8 <fail>

80006b48 <test_2909>:
80006b48:	000011b7          	lui	gp,0x1
80006b4c:	b5d18193          	addi	gp,gp,-1187 # b5d <_start-0x7ffff4a3>
80006b50:	fff00093          	li	ra,-1
80006b54:	0070d713          	srli	a4,ra,0x7
80006b58:	020003b7          	lui	t2,0x2000
80006b5c:	fff38393          	addi	t2,t2,-1 # 1ffffff <_start-0x7e000001>
80006b60:	00770463          	beq	a4,t2,80006b68 <test_2910>
80006b64:	5550106f          	j	800088b8 <fail>

80006b68 <test_2910>:
80006b68:	000011b7          	lui	gp,0x1
80006b6c:	b5e18193          	addi	gp,gp,-1186 # b5e <_start-0x7ffff4a2>
80006b70:	fff00093          	li	ra,-1
80006b74:	00e0d713          	srli	a4,ra,0xe
80006b78:	000403b7          	lui	t2,0x40
80006b7c:	fff38393          	addi	t2,t2,-1 # 3ffff <_start-0x7ffc0001>
80006b80:	00770463          	beq	a4,t2,80006b88 <test_2911>
80006b84:	5350106f          	j	800088b8 <fail>

80006b88 <test_2911>:
80006b88:	000011b7          	lui	gp,0x1
80006b8c:	b5f18193          	addi	gp,gp,-1185 # b5f <_start-0x7ffff4a1>
80006b90:	fff00093          	li	ra,-1
80006b94:	01f0d713          	srli	a4,ra,0x1f
80006b98:	00100393          	li	t2,1
80006b9c:	00770463          	beq	a4,t2,80006ba4 <test_2912>
80006ba0:	5190106f          	j	800088b8 <fail>

80006ba4 <test_2912>:
80006ba4:	000011b7          	lui	gp,0x1
80006ba8:	b6018193          	addi	gp,gp,-1184 # b60 <_start-0x7ffff4a0>
80006bac:	212120b7          	lui	ra,0x21212
80006bb0:	12108093          	addi	ra,ra,289 # 21212121 <_start-0x5edededf>
80006bb4:	0000d713          	srli	a4,ra,0x0
80006bb8:	212123b7          	lui	t2,0x21212
80006bbc:	12138393          	addi	t2,t2,289 # 21212121 <_start-0x5edededf>
80006bc0:	00770463          	beq	a4,t2,80006bc8 <test_2913>
80006bc4:	4f50106f          	j	800088b8 <fail>

80006bc8 <test_2913>:
80006bc8:	000011b7          	lui	gp,0x1
80006bcc:	b6118193          	addi	gp,gp,-1183 # b61 <_start-0x7ffff49f>
80006bd0:	212120b7          	lui	ra,0x21212
80006bd4:	12108093          	addi	ra,ra,289 # 21212121 <_start-0x5edededf>
80006bd8:	0010d713          	srli	a4,ra,0x1
80006bdc:	109093b7          	lui	t2,0x10909
80006be0:	09038393          	addi	t2,t2,144 # 10909090 <_start-0x6f6f6f70>
80006be4:	00770463          	beq	a4,t2,80006bec <test_2914>
80006be8:	4d10106f          	j	800088b8 <fail>

80006bec <test_2914>:
80006bec:	000011b7          	lui	gp,0x1
80006bf0:	b6218193          	addi	gp,gp,-1182 # b62 <_start-0x7ffff49e>
80006bf4:	212120b7          	lui	ra,0x21212
80006bf8:	12108093          	addi	ra,ra,289 # 21212121 <_start-0x5edededf>
80006bfc:	0070d713          	srli	a4,ra,0x7
80006c00:	004243b7          	lui	t2,0x424
80006c04:	24238393          	addi	t2,t2,578 # 424242 <_start-0x7fbdbdbe>
80006c08:	00770463          	beq	a4,t2,80006c10 <test_2915>
80006c0c:	4ad0106f          	j	800088b8 <fail>

80006c10 <test_2915>:
80006c10:	000011b7          	lui	gp,0x1
80006c14:	b6318193          	addi	gp,gp,-1181 # b63 <_start-0x7ffff49d>
80006c18:	212120b7          	lui	ra,0x21212
80006c1c:	12108093          	addi	ra,ra,289 # 21212121 <_start-0x5edededf>
80006c20:	00e0d713          	srli	a4,ra,0xe
80006c24:	000083b7          	lui	t2,0x8
80006c28:	48438393          	addi	t2,t2,1156 # 8484 <_start-0x7fff7b7c>
80006c2c:	00770463          	beq	a4,t2,80006c34 <test_2916>
80006c30:	4890106f          	j	800088b8 <fail>

80006c34 <test_2916>:
80006c34:	000011b7          	lui	gp,0x1
80006c38:	b6418193          	addi	gp,gp,-1180 # b64 <_start-0x7ffff49c>
80006c3c:	212120b7          	lui	ra,0x21212
80006c40:	12108093          	addi	ra,ra,289 # 21212121 <_start-0x5edededf>
80006c44:	01f0d713          	srli	a4,ra,0x1f
80006c48:	00000393          	li	t2,0
80006c4c:	00770463          	beq	a4,t2,80006c54 <test_2917>
80006c50:	4690106f          	j	800088b8 <fail>

80006c54 <test_2917>:
80006c54:	000011b7          	lui	gp,0x1
80006c58:	b6518193          	addi	gp,gp,-1179 # b65 <_start-0x7ffff49b>
80006c5c:	800000b7          	lui	ra,0x80000
80006c60:	0070d093          	srli	ra,ra,0x7
80006c64:	010003b7          	lui	t2,0x1000
80006c68:	00708463          	beq	ra,t2,80006c70 <test_2918>
80006c6c:	44d0106f          	j	800088b8 <fail>

80006c70 <test_2918>:
80006c70:	000011b7          	lui	gp,0x1
80006c74:	b6618193          	addi	gp,gp,-1178 # b66 <_start-0x7ffff49a>
80006c78:	00000213          	li	tp,0
80006c7c:	800000b7          	lui	ra,0x80000
80006c80:	0070d713          	srli	a4,ra,0x7
80006c84:	00070313          	mv	t1,a4
80006c88:	00120213          	addi	tp,tp,1 # 1 <_start-0x7fffffff>
80006c8c:	00200293          	li	t0,2
80006c90:	fe5216e3          	bne	tp,t0,80006c7c <test_2918+0xc>
80006c94:	010003b7          	lui	t2,0x1000
80006c98:	00730463          	beq	t1,t2,80006ca0 <test_2919>
80006c9c:	41d0106f          	j	800088b8 <fail>

80006ca0 <test_2919>:
80006ca0:	000011b7          	lui	gp,0x1
80006ca4:	b6718193          	addi	gp,gp,-1177 # b67 <_start-0x7ffff499>
80006ca8:	00000213          	li	tp,0
80006cac:	800000b7          	lui	ra,0x80000
80006cb0:	00e0d713          	srli	a4,ra,0xe
80006cb4:	00000013          	nop
80006cb8:	00070313          	mv	t1,a4
80006cbc:	00120213          	addi	tp,tp,1 # 1 <_start-0x7fffffff>
80006cc0:	00200293          	li	t0,2
80006cc4:	fe5214e3          	bne	tp,t0,80006cac <test_2919+0xc>
80006cc8:	000203b7          	lui	t2,0x20
80006ccc:	00730463          	beq	t1,t2,80006cd4 <test_2920>
80006cd0:	3e90106f          	j	800088b8 <fail>

80006cd4 <test_2920>:
80006cd4:	000011b7          	lui	gp,0x1
80006cd8:	b6818193          	addi	gp,gp,-1176 # b68 <_start-0x7ffff498>
80006cdc:	00000213          	li	tp,0
80006ce0:	800000b7          	lui	ra,0x80000
80006ce4:	00108093          	addi	ra,ra,1 # 80000001 <_end+0xffff5f31>
80006ce8:	01f0d713          	srli	a4,ra,0x1f
80006cec:	00000013          	nop
80006cf0:	00000013          	nop
80006cf4:	00070313          	mv	t1,a4
80006cf8:	00120213          	addi	tp,tp,1 # 1 <_start-0x7fffffff>
80006cfc:	00200293          	li	t0,2
80006d00:	fe5210e3          	bne	tp,t0,80006ce0 <test_2920+0xc>
80006d04:	00100393          	li	t2,1
80006d08:	00730463          	beq	t1,t2,80006d10 <test_2921>
80006d0c:	3ad0106f          	j	800088b8 <fail>

80006d10 <test_2921>:
80006d10:	000011b7          	lui	gp,0x1
80006d14:	b6918193          	addi	gp,gp,-1175 # b69 <_start-0x7ffff497>
80006d18:	00000213          	li	tp,0
80006d1c:	800000b7          	lui	ra,0x80000
80006d20:	0070d713          	srli	a4,ra,0x7
80006d24:	00120213          	addi	tp,tp,1 # 1 <_start-0x7fffffff>
80006d28:	00200293          	li	t0,2
80006d2c:	fe5218e3          	bne	tp,t0,80006d1c <test_2921+0xc>
80006d30:	010003b7          	lui	t2,0x1000
80006d34:	00770463          	beq	a4,t2,80006d3c <test_2922>
80006d38:	3810106f          	j	800088b8 <fail>

80006d3c <test_2922>:
80006d3c:	000011b7          	lui	gp,0x1
80006d40:	b6a18193          	addi	gp,gp,-1174 # b6a <_start-0x7ffff496>
80006d44:	00000213          	li	tp,0
80006d48:	800000b7          	lui	ra,0x80000
80006d4c:	00000013          	nop
80006d50:	00e0d713          	srli	a4,ra,0xe
80006d54:	00120213          	addi	tp,tp,1 # 1 <_start-0x7fffffff>
80006d58:	00200293          	li	t0,2
80006d5c:	fe5216e3          	bne	tp,t0,80006d48 <test_2922+0xc>
80006d60:	000203b7          	lui	t2,0x20
80006d64:	00770463          	beq	a4,t2,80006d6c <test_2923>
80006d68:	3510106f          	j	800088b8 <fail>

80006d6c <test_2923>:
80006d6c:	000011b7          	lui	gp,0x1
80006d70:	b6b18193          	addi	gp,gp,-1173 # b6b <_start-0x7ffff495>
80006d74:	00000213          	li	tp,0
80006d78:	800000b7          	lui	ra,0x80000
80006d7c:	00108093          	addi	ra,ra,1 # 80000001 <_end+0xffff5f31>
80006d80:	00000013          	nop
80006d84:	00000013          	nop
80006d88:	01f0d713          	srli	a4,ra,0x1f
80006d8c:	00120213          	addi	tp,tp,1 # 1 <_start-0x7fffffff>
80006d90:	00200293          	li	t0,2
80006d94:	fe5212e3          	bne	tp,t0,80006d78 <test_2923+0xc>
80006d98:	00100393          	li	t2,1
80006d9c:	00770463          	beq	a4,t2,80006da4 <test_2924>
80006da0:	3190106f          	j	800088b8 <fail>

80006da4 <test_2924>:
80006da4:	000011b7          	lui	gp,0x1
80006da8:	b6c18193          	addi	gp,gp,-1172 # b6c <_start-0x7ffff494>
80006dac:	00405093          	srli	ra,zero,0x4
80006db0:	00000393          	li	t2,0
80006db4:	00708463          	beq	ra,t2,80006dbc <test_2925>
80006db8:	3010106f          	j	800088b8 <fail>

80006dbc <test_2925>:
80006dbc:	000011b7          	lui	gp,0x1
80006dc0:	b6d18193          	addi	gp,gp,-1171 # b6d <_start-0x7ffff493>
80006dc4:	02100093          	li	ra,33
80006dc8:	00a0d013          	srli	zero,ra,0xa
80006dcc:	00000393          	li	t2,0
80006dd0:	00700463          	beq	zero,t2,80006dd8 <test_3002>
80006dd4:	2e50106f          	j	800088b8 <fail>

80006dd8 <test_3002>:
80006dd8:	000011b7          	lui	gp,0x1
80006ddc:	bba18193          	addi	gp,gp,-1094 # bba <_start-0x7ffff446>
80006de0:	00000093          	li	ra,0
80006de4:	00000113          	li	sp,0
80006de8:	40208733          	sub	a4,ra,sp
80006dec:	00000393          	li	t2,0
80006df0:	00770463          	beq	a4,t2,80006df8 <test_3003>
80006df4:	2c50106f          	j	800088b8 <fail>

80006df8 <test_3003>:
80006df8:	000011b7          	lui	gp,0x1
80006dfc:	bbb18193          	addi	gp,gp,-1093 # bbb <_start-0x7ffff445>
80006e00:	00100093          	li	ra,1
80006e04:	00100113          	li	sp,1
80006e08:	40208733          	sub	a4,ra,sp
80006e0c:	00000393          	li	t2,0
80006e10:	00770463          	beq	a4,t2,80006e18 <test_3004>
80006e14:	2a50106f          	j	800088b8 <fail>

80006e18 <test_3004>:
80006e18:	000011b7          	lui	gp,0x1
80006e1c:	bbc18193          	addi	gp,gp,-1092 # bbc <_start-0x7ffff444>
80006e20:	00300093          	li	ra,3
80006e24:	00700113          	li	sp,7
80006e28:	40208733          	sub	a4,ra,sp
80006e2c:	ffc00393          	li	t2,-4
80006e30:	00770463          	beq	a4,t2,80006e38 <test_3005>
80006e34:	2850106f          	j	800088b8 <fail>

80006e38 <test_3005>:
80006e38:	000011b7          	lui	gp,0x1
80006e3c:	bbd18193          	addi	gp,gp,-1091 # bbd <_start-0x7ffff443>
80006e40:	00000093          	li	ra,0
80006e44:	ffff8137          	lui	sp,0xffff8
80006e48:	40208733          	sub	a4,ra,sp
80006e4c:	000083b7          	lui	t2,0x8
80006e50:	00770463          	beq	a4,t2,80006e58 <test_3006>
80006e54:	2650106f          	j	800088b8 <fail>

80006e58 <test_3006>:
80006e58:	000011b7          	lui	gp,0x1
80006e5c:	bbe18193          	addi	gp,gp,-1090 # bbe <_start-0x7ffff442>
80006e60:	800000b7          	lui	ra,0x80000
80006e64:	00000113          	li	sp,0
80006e68:	40208733          	sub	a4,ra,sp
80006e6c:	800003b7          	lui	t2,0x80000
80006e70:	00770463          	beq	a4,t2,80006e78 <test_3007>
80006e74:	2450106f          	j	800088b8 <fail>

80006e78 <test_3007>:
80006e78:	000011b7          	lui	gp,0x1
80006e7c:	bbf18193          	addi	gp,gp,-1089 # bbf <_start-0x7ffff441>
80006e80:	800000b7          	lui	ra,0x80000
80006e84:	ffff8137          	lui	sp,0xffff8
80006e88:	40208733          	sub	a4,ra,sp
80006e8c:	800083b7          	lui	t2,0x80008
80006e90:	00770463          	beq	a4,t2,80006e98 <test_3008>
80006e94:	2250106f          	j	800088b8 <fail>

80006e98 <test_3008>:
80006e98:	000011b7          	lui	gp,0x1
80006e9c:	bc018193          	addi	gp,gp,-1088 # bc0 <_start-0x7ffff440>
80006ea0:	00000093          	li	ra,0
80006ea4:	00008137          	lui	sp,0x8
80006ea8:	fff10113          	addi	sp,sp,-1 # 7fff <_start-0x7fff8001>
80006eac:	40208733          	sub	a4,ra,sp
80006eb0:	ffff83b7          	lui	t2,0xffff8
80006eb4:	00138393          	addi	t2,t2,1 # ffff8001 <_end+0x7ffedf31>
80006eb8:	00770463          	beq	a4,t2,80006ec0 <test_3009>
80006ebc:	1fd0106f          	j	800088b8 <fail>

80006ec0 <test_3009>:
80006ec0:	000011b7          	lui	gp,0x1
80006ec4:	bc118193          	addi	gp,gp,-1087 # bc1 <_start-0x7ffff43f>
80006ec8:	800000b7          	lui	ra,0x80000
80006ecc:	fff08093          	addi	ra,ra,-1 # 7fffffff <_end+0xffff5f2f>
80006ed0:	00000113          	li	sp,0
80006ed4:	40208733          	sub	a4,ra,sp
80006ed8:	800003b7          	lui	t2,0x80000
80006edc:	fff38393          	addi	t2,t2,-1 # 7fffffff <_end+0xffff5f2f>
80006ee0:	00770463          	beq	a4,t2,80006ee8 <test_3010>
80006ee4:	1d50106f          	j	800088b8 <fail>

80006ee8 <test_3010>:
80006ee8:	000011b7          	lui	gp,0x1
80006eec:	bc218193          	addi	gp,gp,-1086 # bc2 <_start-0x7ffff43e>
80006ef0:	800000b7          	lui	ra,0x80000
80006ef4:	fff08093          	addi	ra,ra,-1 # 7fffffff <_end+0xffff5f2f>
80006ef8:	00008137          	lui	sp,0x8
80006efc:	fff10113          	addi	sp,sp,-1 # 7fff <_start-0x7fff8001>
80006f00:	40208733          	sub	a4,ra,sp
80006f04:	7fff83b7          	lui	t2,0x7fff8
80006f08:	00770463          	beq	a4,t2,80006f10 <test_3011>
80006f0c:	1ad0106f          	j	800088b8 <fail>

80006f10 <test_3011>:
80006f10:	000011b7          	lui	gp,0x1
80006f14:	bc318193          	addi	gp,gp,-1085 # bc3 <_start-0x7ffff43d>
80006f18:	800000b7          	lui	ra,0x80000
80006f1c:	00008137          	lui	sp,0x8
80006f20:	fff10113          	addi	sp,sp,-1 # 7fff <_start-0x7fff8001>
80006f24:	40208733          	sub	a4,ra,sp
80006f28:	7fff83b7          	lui	t2,0x7fff8
80006f2c:	00138393          	addi	t2,t2,1 # 7fff8001 <_start-0x7fff>
80006f30:	00770463          	beq	a4,t2,80006f38 <test_3012>
80006f34:	1850106f          	j	800088b8 <fail>

80006f38 <test_3012>:
80006f38:	000011b7          	lui	gp,0x1
80006f3c:	bc418193          	addi	gp,gp,-1084 # bc4 <_start-0x7ffff43c>
80006f40:	800000b7          	lui	ra,0x80000
80006f44:	fff08093          	addi	ra,ra,-1 # 7fffffff <_end+0xffff5f2f>
80006f48:	ffff8137          	lui	sp,0xffff8
80006f4c:	40208733          	sub	a4,ra,sp
80006f50:	800083b7          	lui	t2,0x80008
80006f54:	fff38393          	addi	t2,t2,-1 # 80007fff <_end+0xffffdf2f>
80006f58:	00770463          	beq	a4,t2,80006f60 <test_3013>
80006f5c:	15d0106f          	j	800088b8 <fail>

80006f60 <test_3013>:
80006f60:	000011b7          	lui	gp,0x1
80006f64:	bc518193          	addi	gp,gp,-1083 # bc5 <_start-0x7ffff43b>
80006f68:	00000093          	li	ra,0
80006f6c:	fff00113          	li	sp,-1
80006f70:	40208733          	sub	a4,ra,sp
80006f74:	00100393          	li	t2,1
80006f78:	00770463          	beq	a4,t2,80006f80 <test_3014>
80006f7c:	13d0106f          	j	800088b8 <fail>

80006f80 <test_3014>:
80006f80:	000011b7          	lui	gp,0x1
80006f84:	bc618193          	addi	gp,gp,-1082 # bc6 <_start-0x7ffff43a>
80006f88:	fff00093          	li	ra,-1
80006f8c:	00100113          	li	sp,1
80006f90:	40208733          	sub	a4,ra,sp
80006f94:	ffe00393          	li	t2,-2
80006f98:	00770463          	beq	a4,t2,80006fa0 <test_3015>
80006f9c:	11d0106f          	j	800088b8 <fail>

80006fa0 <test_3015>:
80006fa0:	000011b7          	lui	gp,0x1
80006fa4:	bc718193          	addi	gp,gp,-1081 # bc7 <_start-0x7ffff439>
80006fa8:	fff00093          	li	ra,-1
80006fac:	fff00113          	li	sp,-1
80006fb0:	40208733          	sub	a4,ra,sp
80006fb4:	00000393          	li	t2,0
80006fb8:	00770463          	beq	a4,t2,80006fc0 <test_3016>
80006fbc:	0fd0106f          	j	800088b8 <fail>

80006fc0 <test_3016>:
80006fc0:	000011b7          	lui	gp,0x1
80006fc4:	bc818193          	addi	gp,gp,-1080 # bc8 <_start-0x7ffff438>
80006fc8:	00d00093          	li	ra,13
80006fcc:	00b00113          	li	sp,11
80006fd0:	402080b3          	sub	ra,ra,sp
80006fd4:	00200393          	li	t2,2
80006fd8:	00708463          	beq	ra,t2,80006fe0 <test_3017>
80006fdc:	0dd0106f          	j	800088b8 <fail>

80006fe0 <test_3017>:
80006fe0:	000011b7          	lui	gp,0x1
80006fe4:	bc918193          	addi	gp,gp,-1079 # bc9 <_start-0x7ffff437>
80006fe8:	00e00093          	li	ra,14
80006fec:	00b00113          	li	sp,11
80006ff0:	40208133          	sub	sp,ra,sp
80006ff4:	00300393          	li	t2,3
80006ff8:	00710463          	beq	sp,t2,80007000 <test_3018>
80006ffc:	0bd0106f          	j	800088b8 <fail>

80007000 <test_3018>:
80007000:	000011b7          	lui	gp,0x1
80007004:	bca18193          	addi	gp,gp,-1078 # bca <_start-0x7ffff436>
80007008:	00d00093          	li	ra,13
8000700c:	401080b3          	sub	ra,ra,ra
80007010:	00000393          	li	t2,0
80007014:	00708463          	beq	ra,t2,8000701c <test_3019>
80007018:	0a10106f          	j	800088b8 <fail>

8000701c <test_3019>:
8000701c:	000011b7          	lui	gp,0x1
80007020:	bcb18193          	addi	gp,gp,-1077 # bcb <_start-0x7ffff435>
80007024:	00000213          	li	tp,0
80007028:	00d00093          	li	ra,13
8000702c:	00b00113          	li	sp,11
80007030:	40208733          	sub	a4,ra,sp
80007034:	00070313          	mv	t1,a4
80007038:	00120213          	addi	tp,tp,1 # 1 <_start-0x7fffffff>
8000703c:	00200293          	li	t0,2
80007040:	fe5214e3          	bne	tp,t0,80007028 <test_3019+0xc>
80007044:	00200393          	li	t2,2
80007048:	00730463          	beq	t1,t2,80007050 <test_3020>
8000704c:	06d0106f          	j	800088b8 <fail>

80007050 <test_3020>:
80007050:	000011b7          	lui	gp,0x1
80007054:	bcc18193          	addi	gp,gp,-1076 # bcc <_start-0x7ffff434>
80007058:	00000213          	li	tp,0
8000705c:	00e00093          	li	ra,14
80007060:	00b00113          	li	sp,11
80007064:	40208733          	sub	a4,ra,sp
80007068:	00000013          	nop
8000706c:	00070313          	mv	t1,a4
80007070:	00120213          	addi	tp,tp,1 # 1 <_start-0x7fffffff>
80007074:	00200293          	li	t0,2
80007078:	fe5212e3          	bne	tp,t0,8000705c <test_3020+0xc>
8000707c:	00300393          	li	t2,3
80007080:	00730463          	beq	t1,t2,80007088 <test_3021>
80007084:	0350106f          	j	800088b8 <fail>

80007088 <test_3021>:
80007088:	000011b7          	lui	gp,0x1
8000708c:	bcd18193          	addi	gp,gp,-1075 # bcd <_start-0x7ffff433>
80007090:	00000213          	li	tp,0
80007094:	00f00093          	li	ra,15
80007098:	00b00113          	li	sp,11
8000709c:	40208733          	sub	a4,ra,sp
800070a0:	00000013          	nop
800070a4:	00000013          	nop
800070a8:	00070313          	mv	t1,a4
800070ac:	00120213          	addi	tp,tp,1 # 1 <_start-0x7fffffff>
800070b0:	00200293          	li	t0,2
800070b4:	fe5210e3          	bne	tp,t0,80007094 <test_3021+0xc>
800070b8:	00400393          	li	t2,4
800070bc:	00730463          	beq	t1,t2,800070c4 <test_3022>
800070c0:	7f80106f          	j	800088b8 <fail>

800070c4 <test_3022>:
800070c4:	000011b7          	lui	gp,0x1
800070c8:	bce18193          	addi	gp,gp,-1074 # bce <_start-0x7ffff432>
800070cc:	00000213          	li	tp,0
800070d0:	00d00093          	li	ra,13
800070d4:	00b00113          	li	sp,11
800070d8:	40208733          	sub	a4,ra,sp
800070dc:	00120213          	addi	tp,tp,1 # 1 <_start-0x7fffffff>
800070e0:	00200293          	li	t0,2
800070e4:	fe5216e3          	bne	tp,t0,800070d0 <test_3022+0xc>
800070e8:	00200393          	li	t2,2
800070ec:	00770463          	beq	a4,t2,800070f4 <test_3023>
800070f0:	7c80106f          	j	800088b8 <fail>

800070f4 <test_3023>:
800070f4:	000011b7          	lui	gp,0x1
800070f8:	bcf18193          	addi	gp,gp,-1073 # bcf <_start-0x7ffff431>
800070fc:	00000213          	li	tp,0
80007100:	00e00093          	li	ra,14
80007104:	00b00113          	li	sp,11
80007108:	00000013          	nop
8000710c:	40208733          	sub	a4,ra,sp
80007110:	00120213          	addi	tp,tp,1 # 1 <_start-0x7fffffff>
80007114:	00200293          	li	t0,2
80007118:	fe5214e3          	bne	tp,t0,80007100 <test_3023+0xc>
8000711c:	00300393          	li	t2,3
80007120:	00770463          	beq	a4,t2,80007128 <test_3024>
80007124:	7940106f          	j	800088b8 <fail>

80007128 <test_3024>:
80007128:	000011b7          	lui	gp,0x1
8000712c:	bd018193          	addi	gp,gp,-1072 # bd0 <_start-0x7ffff430>
80007130:	00000213          	li	tp,0
80007134:	00f00093          	li	ra,15
80007138:	00b00113          	li	sp,11
8000713c:	00000013          	nop
80007140:	00000013          	nop
80007144:	40208733          	sub	a4,ra,sp
80007148:	00120213          	addi	tp,tp,1 # 1 <_start-0x7fffffff>
8000714c:	00200293          	li	t0,2
80007150:	fe5212e3          	bne	tp,t0,80007134 <test_3024+0xc>
80007154:	00400393          	li	t2,4
80007158:	00770463          	beq	a4,t2,80007160 <test_3025>
8000715c:	75c0106f          	j	800088b8 <fail>

80007160 <test_3025>:
80007160:	000011b7          	lui	gp,0x1
80007164:	bd118193          	addi	gp,gp,-1071 # bd1 <_start-0x7ffff42f>
80007168:	00000213          	li	tp,0
8000716c:	00d00093          	li	ra,13
80007170:	00000013          	nop
80007174:	00b00113          	li	sp,11
80007178:	40208733          	sub	a4,ra,sp
8000717c:	00120213          	addi	tp,tp,1 # 1 <_start-0x7fffffff>
80007180:	00200293          	li	t0,2
80007184:	fe5214e3          	bne	tp,t0,8000716c <test_3025+0xc>
80007188:	00200393          	li	t2,2
8000718c:	00770463          	beq	a4,t2,80007194 <test_3026>
80007190:	7280106f          	j	800088b8 <fail>

80007194 <test_3026>:
80007194:	000011b7          	lui	gp,0x1
80007198:	bd218193          	addi	gp,gp,-1070 # bd2 <_start-0x7ffff42e>
8000719c:	00000213          	li	tp,0
800071a0:	00e00093          	li	ra,14
800071a4:	00000013          	nop
800071a8:	00b00113          	li	sp,11
800071ac:	00000013          	nop
800071b0:	40208733          	sub	a4,ra,sp
800071b4:	00120213          	addi	tp,tp,1 # 1 <_start-0x7fffffff>
800071b8:	00200293          	li	t0,2
800071bc:	fe5212e3          	bne	tp,t0,800071a0 <test_3026+0xc>
800071c0:	00300393          	li	t2,3
800071c4:	00770463          	beq	a4,t2,800071cc <test_3027>
800071c8:	6f00106f          	j	800088b8 <fail>

800071cc <test_3027>:
800071cc:	000011b7          	lui	gp,0x1
800071d0:	bd318193          	addi	gp,gp,-1069 # bd3 <_start-0x7ffff42d>
800071d4:	00000213          	li	tp,0
800071d8:	00f00093          	li	ra,15
800071dc:	00000013          	nop
800071e0:	00000013          	nop
800071e4:	00b00113          	li	sp,11
800071e8:	40208733          	sub	a4,ra,sp
800071ec:	00120213          	addi	tp,tp,1 # 1 <_start-0x7fffffff>
800071f0:	00200293          	li	t0,2
800071f4:	fe5212e3          	bne	tp,t0,800071d8 <test_3027+0xc>
800071f8:	00400393          	li	t2,4
800071fc:	00770463          	beq	a4,t2,80007204 <test_3028>
80007200:	6b80106f          	j	800088b8 <fail>

80007204 <test_3028>:
80007204:	000011b7          	lui	gp,0x1
80007208:	bd418193          	addi	gp,gp,-1068 # bd4 <_start-0x7ffff42c>
8000720c:	00000213          	li	tp,0
80007210:	00b00113          	li	sp,11
80007214:	00d00093          	li	ra,13
80007218:	40208733          	sub	a4,ra,sp
8000721c:	00120213          	addi	tp,tp,1 # 1 <_start-0x7fffffff>
80007220:	00200293          	li	t0,2
80007224:	fe5216e3          	bne	tp,t0,80007210 <test_3028+0xc>
80007228:	00200393          	li	t2,2
8000722c:	00770463          	beq	a4,t2,80007234 <test_3029>
80007230:	6880106f          	j	800088b8 <fail>

80007234 <test_3029>:
80007234:	000011b7          	lui	gp,0x1
80007238:	bd518193          	addi	gp,gp,-1067 # bd5 <_start-0x7ffff42b>
8000723c:	00000213          	li	tp,0
80007240:	00b00113          	li	sp,11
80007244:	00e00093          	li	ra,14
80007248:	00000013          	nop
8000724c:	40208733          	sub	a4,ra,sp
80007250:	00120213          	addi	tp,tp,1 # 1 <_start-0x7fffffff>
80007254:	00200293          	li	t0,2
80007258:	fe5214e3          	bne	tp,t0,80007240 <test_3029+0xc>
8000725c:	00300393          	li	t2,3
80007260:	00770463          	beq	a4,t2,80007268 <test_3030>
80007264:	6540106f          	j	800088b8 <fail>

80007268 <test_3030>:
80007268:	000011b7          	lui	gp,0x1
8000726c:	bd618193          	addi	gp,gp,-1066 # bd6 <_start-0x7ffff42a>
80007270:	00000213          	li	tp,0
80007274:	00b00113          	li	sp,11
80007278:	00f00093          	li	ra,15
8000727c:	00000013          	nop
80007280:	00000013          	nop
80007284:	40208733          	sub	a4,ra,sp
80007288:	00120213          	addi	tp,tp,1 # 1 <_start-0x7fffffff>
8000728c:	00200293          	li	t0,2
80007290:	fe5212e3          	bne	tp,t0,80007274 <test_3030+0xc>
80007294:	00400393          	li	t2,4
80007298:	00770463          	beq	a4,t2,800072a0 <test_3031>
8000729c:	61c0106f          	j	800088b8 <fail>

800072a0 <test_3031>:
800072a0:	000011b7          	lui	gp,0x1
800072a4:	bd718193          	addi	gp,gp,-1065 # bd7 <_start-0x7ffff429>
800072a8:	00000213          	li	tp,0
800072ac:	00b00113          	li	sp,11
800072b0:	00000013          	nop
800072b4:	00d00093          	li	ra,13
800072b8:	40208733          	sub	a4,ra,sp
800072bc:	00120213          	addi	tp,tp,1 # 1 <_start-0x7fffffff>
800072c0:	00200293          	li	t0,2
800072c4:	fe5214e3          	bne	tp,t0,800072ac <test_3031+0xc>
800072c8:	00200393          	li	t2,2
800072cc:	00770463          	beq	a4,t2,800072d4 <test_3032>
800072d0:	5e80106f          	j	800088b8 <fail>

800072d4 <test_3032>:
800072d4:	000011b7          	lui	gp,0x1
800072d8:	bd818193          	addi	gp,gp,-1064 # bd8 <_start-0x7ffff428>
800072dc:	00000213          	li	tp,0
800072e0:	00b00113          	li	sp,11
800072e4:	00000013          	nop
800072e8:	00e00093          	li	ra,14
800072ec:	00000013          	nop
800072f0:	40208733          	sub	a4,ra,sp
800072f4:	00120213          	addi	tp,tp,1 # 1 <_start-0x7fffffff>
800072f8:	00200293          	li	t0,2
800072fc:	fe5212e3          	bne	tp,t0,800072e0 <test_3032+0xc>
80007300:	00300393          	li	t2,3
80007304:	00770463          	beq	a4,t2,8000730c <test_3033>
80007308:	5b00106f          	j	800088b8 <fail>

8000730c <test_3033>:
8000730c:	000011b7          	lui	gp,0x1
80007310:	bd918193          	addi	gp,gp,-1063 # bd9 <_start-0x7ffff427>
80007314:	00000213          	li	tp,0
80007318:	00b00113          	li	sp,11
8000731c:	00000013          	nop
80007320:	00000013          	nop
80007324:	00f00093          	li	ra,15
80007328:	40208733          	sub	a4,ra,sp
8000732c:	00120213          	addi	tp,tp,1 # 1 <_start-0x7fffffff>
80007330:	00200293          	li	t0,2
80007334:	fe5212e3          	bne	tp,t0,80007318 <test_3033+0xc>
80007338:	00400393          	li	t2,4
8000733c:	00770463          	beq	a4,t2,80007344 <test_3034>
80007340:	5780106f          	j	800088b8 <fail>

80007344 <test_3034>:
80007344:	000011b7          	lui	gp,0x1
80007348:	bda18193          	addi	gp,gp,-1062 # bda <_start-0x7ffff426>
8000734c:	ff100093          	li	ra,-15
80007350:	40100133          	neg	sp,ra
80007354:	00f00393          	li	t2,15
80007358:	00710463          	beq	sp,t2,80007360 <test_3035>
8000735c:	55c0106f          	j	800088b8 <fail>

80007360 <test_3035>:
80007360:	000011b7          	lui	gp,0x1
80007364:	bdb18193          	addi	gp,gp,-1061 # bdb <_start-0x7ffff425>
80007368:	02000093          	li	ra,32
8000736c:	40008133          	sub	sp,ra,zero
80007370:	02000393          	li	t2,32
80007374:	00710463          	beq	sp,t2,8000737c <test_3036>
80007378:	5400106f          	j	800088b8 <fail>

8000737c <test_3036>:
8000737c:	000011b7          	lui	gp,0x1
80007380:	bdc18193          	addi	gp,gp,-1060 # bdc <_start-0x7ffff424>
80007384:	400000b3          	neg	ra,zero
80007388:	00000393          	li	t2,0
8000738c:	00708463          	beq	ra,t2,80007394 <test_3037>
80007390:	5280106f          	j	800088b8 <fail>

80007394 <test_3037>:
80007394:	000011b7          	lui	gp,0x1
80007398:	bdd18193          	addi	gp,gp,-1059 # bdd <_start-0x7ffff423>
8000739c:	01000093          	li	ra,16
800073a0:	01e00113          	li	sp,30
800073a4:	40208033          	sub	zero,ra,sp
800073a8:	00000393          	li	t2,0
800073ac:	00700463          	beq	zero,t2,800073b4 <test_3102>
800073b0:	5080106f          	j	800088b8 <fail>

800073b4 <test_3102>:
800073b4:	000011b7          	lui	gp,0x1
800073b8:	c1e18193          	addi	gp,gp,-994 # c1e <_start-0x7ffff3e2>
800073bc:	00ff10b7          	lui	ra,0xff1
800073c0:	f0008093          	addi	ra,ra,-256 # ff0f00 <_start-0x7f00f100>
800073c4:	f0f0c713          	xori	a4,ra,-241
800073c8:	ff00f3b7          	lui	t2,0xff00f
800073cc:	00f38393          	addi	t2,t2,15 # ff00f00f <_end+0x7f004f3f>
800073d0:	00770463          	beq	a4,t2,800073d8 <test_3103>
800073d4:	4e40106f          	j	800088b8 <fail>

800073d8 <test_3103>:
800073d8:	000011b7          	lui	gp,0x1
800073dc:	c1f18193          	addi	gp,gp,-993 # c1f <_start-0x7ffff3e1>
800073e0:	0ff010b7          	lui	ra,0xff01
800073e4:	ff008093          	addi	ra,ra,-16 # ff00ff0 <_start-0x700ff010>
800073e8:	0f00c713          	xori	a4,ra,240
800073ec:	0ff013b7          	lui	t2,0xff01
800073f0:	f0038393          	addi	t2,t2,-256 # ff00f00 <_start-0x700ff100>
800073f4:	00770463          	beq	a4,t2,800073fc <test_3104>
800073f8:	4c00106f          	j	800088b8 <fail>

800073fc <test_3104>:
800073fc:	000011b7          	lui	gp,0x1
80007400:	c2018193          	addi	gp,gp,-992 # c20 <_start-0x7ffff3e0>
80007404:	00ff10b7          	lui	ra,0xff1
80007408:	8ff08093          	addi	ra,ra,-1793 # ff08ff <_start-0x7f00f701>
8000740c:	70f0c713          	xori	a4,ra,1807
80007410:	00ff13b7          	lui	t2,0xff1
80007414:	ff038393          	addi	t2,t2,-16 # ff0ff0 <_start-0x7f00f010>
80007418:	00770463          	beq	a4,t2,80007420 <test_3105>
8000741c:	49c0106f          	j	800088b8 <fail>

80007420 <test_3105>:
80007420:	000011b7          	lui	gp,0x1
80007424:	c2118193          	addi	gp,gp,-991 # c21 <_start-0x7ffff3df>
80007428:	f00ff0b7          	lui	ra,0xf00ff
8000742c:	00f08093          	addi	ra,ra,15 # f00ff00f <_end+0x700f4f3f>
80007430:	0f00c713          	xori	a4,ra,240
80007434:	f00ff3b7          	lui	t2,0xf00ff
80007438:	0ff38393          	addi	t2,t2,255 # f00ff0ff <_end+0x700f502f>
8000743c:	00770463          	beq	a4,t2,80007444 <test_3106>
80007440:	4780106f          	j	800088b8 <fail>

80007444 <test_3106>:
80007444:	000011b7          	lui	gp,0x1
80007448:	c2218193          	addi	gp,gp,-990 # c22 <_start-0x7ffff3de>
8000744c:	ff00f0b7          	lui	ra,0xff00f
80007450:	70008093          	addi	ra,ra,1792 # ff00f700 <_end+0x7f005630>
80007454:	70f0c093          	xori	ra,ra,1807
80007458:	ff00f3b7          	lui	t2,0xff00f
8000745c:	00f38393          	addi	t2,t2,15 # ff00f00f <_end+0x7f004f3f>
80007460:	00708463          	beq	ra,t2,80007468 <test_3107>
80007464:	4540106f          	j	800088b8 <fail>

80007468 <test_3107>:
80007468:	000011b7          	lui	gp,0x1
8000746c:	c2318193          	addi	gp,gp,-989 # c23 <_start-0x7ffff3dd>
80007470:	00000213          	li	tp,0
80007474:	0ff010b7          	lui	ra,0xff01
80007478:	ff008093          	addi	ra,ra,-16 # ff00ff0 <_start-0x700ff010>
8000747c:	0f00c713          	xori	a4,ra,240
80007480:	00070313          	mv	t1,a4
80007484:	00120213          	addi	tp,tp,1 # 1 <_start-0x7fffffff>
80007488:	00200293          	li	t0,2
8000748c:	fe5214e3          	bne	tp,t0,80007474 <test_3107+0xc>
80007490:	0ff013b7          	lui	t2,0xff01
80007494:	f0038393          	addi	t2,t2,-256 # ff00f00 <_start-0x700ff100>
80007498:	00730463          	beq	t1,t2,800074a0 <test_3108>
8000749c:	41c0106f          	j	800088b8 <fail>

800074a0 <test_3108>:
800074a0:	000011b7          	lui	gp,0x1
800074a4:	c2418193          	addi	gp,gp,-988 # c24 <_start-0x7ffff3dc>
800074a8:	00000213          	li	tp,0
800074ac:	00ff10b7          	lui	ra,0xff1
800074b0:	8ff08093          	addi	ra,ra,-1793 # ff08ff <_start-0x7f00f701>
800074b4:	70f0c713          	xori	a4,ra,1807
800074b8:	00000013          	nop
800074bc:	00070313          	mv	t1,a4
800074c0:	00120213          	addi	tp,tp,1 # 1 <_start-0x7fffffff>
800074c4:	00200293          	li	t0,2
800074c8:	fe5212e3          	bne	tp,t0,800074ac <test_3108+0xc>
800074cc:	00ff13b7          	lui	t2,0xff1
800074d0:	ff038393          	addi	t2,t2,-16 # ff0ff0 <_start-0x7f00f010>
800074d4:	00730463          	beq	t1,t2,800074dc <test_3109>
800074d8:	3e00106f          	j	800088b8 <fail>

800074dc <test_3109>:
800074dc:	000011b7          	lui	gp,0x1
800074e0:	c2518193          	addi	gp,gp,-987 # c25 <_start-0x7ffff3db>
800074e4:	00000213          	li	tp,0
800074e8:	f00ff0b7          	lui	ra,0xf00ff
800074ec:	00f08093          	addi	ra,ra,15 # f00ff00f <_end+0x700f4f3f>
800074f0:	0f00c713          	xori	a4,ra,240
800074f4:	00000013          	nop
800074f8:	00000013          	nop
800074fc:	00070313          	mv	t1,a4
80007500:	00120213          	addi	tp,tp,1 # 1 <_start-0x7fffffff>
80007504:	00200293          	li	t0,2
80007508:	fe5210e3          	bne	tp,t0,800074e8 <test_3109+0xc>
8000750c:	f00ff3b7          	lui	t2,0xf00ff
80007510:	0ff38393          	addi	t2,t2,255 # f00ff0ff <_end+0x700f502f>
80007514:	00730463          	beq	t1,t2,8000751c <test_3110>
80007518:	3a00106f          	j	800088b8 <fail>

8000751c <test_3110>:
8000751c:	000011b7          	lui	gp,0x1
80007520:	c2618193          	addi	gp,gp,-986 # c26 <_start-0x7ffff3da>
80007524:	00000213          	li	tp,0
80007528:	0ff010b7          	lui	ra,0xff01
8000752c:	ff008093          	addi	ra,ra,-16 # ff00ff0 <_start-0x700ff010>
80007530:	0f00c713          	xori	a4,ra,240
80007534:	00120213          	addi	tp,tp,1 # 1 <_start-0x7fffffff>
80007538:	00200293          	li	t0,2
8000753c:	fe5216e3          	bne	tp,t0,80007528 <test_3110+0xc>
80007540:	0ff013b7          	lui	t2,0xff01
80007544:	f0038393          	addi	t2,t2,-256 # ff00f00 <_start-0x700ff100>
80007548:	00770463          	beq	a4,t2,80007550 <test_3111>
8000754c:	36c0106f          	j	800088b8 <fail>

80007550 <test_3111>:
80007550:	000011b7          	lui	gp,0x1
80007554:	c2718193          	addi	gp,gp,-985 # c27 <_start-0x7ffff3d9>
80007558:	00000213          	li	tp,0
8000755c:	00ff10b7          	lui	ra,0xff1
80007560:	fff08093          	addi	ra,ra,-1 # ff0fff <_start-0x7f00f001>
80007564:	00000013          	nop
80007568:	00f0c713          	xori	a4,ra,15
8000756c:	00120213          	addi	tp,tp,1 # 1 <_start-0x7fffffff>
80007570:	00200293          	li	t0,2
80007574:	fe5214e3          	bne	tp,t0,8000755c <test_3111+0xc>
80007578:	00ff13b7          	lui	t2,0xff1
8000757c:	ff038393          	addi	t2,t2,-16 # ff0ff0 <_start-0x7f00f010>
80007580:	00770463          	beq	a4,t2,80007588 <test_3112>
80007584:	3340106f          	j	800088b8 <fail>

80007588 <test_3112>:
80007588:	000011b7          	lui	gp,0x1
8000758c:	c2818193          	addi	gp,gp,-984 # c28 <_start-0x7ffff3d8>
80007590:	00000213          	li	tp,0
80007594:	f00ff0b7          	lui	ra,0xf00ff
80007598:	00f08093          	addi	ra,ra,15 # f00ff00f <_end+0x700f4f3f>
8000759c:	00000013          	nop
800075a0:	00000013          	nop
800075a4:	0f00c713          	xori	a4,ra,240
800075a8:	00120213          	addi	tp,tp,1 # 1 <_start-0x7fffffff>
800075ac:	00200293          	li	t0,2
800075b0:	fe5212e3          	bne	tp,t0,80007594 <test_3112+0xc>
800075b4:	f00ff3b7          	lui	t2,0xf00ff
800075b8:	0ff38393          	addi	t2,t2,255 # f00ff0ff <_end+0x700f502f>
800075bc:	00770463          	beq	a4,t2,800075c4 <test_3113>
800075c0:	2f80106f          	j	800088b8 <fail>

800075c4 <test_3113>:
800075c4:	000011b7          	lui	gp,0x1
800075c8:	c2918193          	addi	gp,gp,-983 # c29 <_start-0x7ffff3d7>
800075cc:	0f004093          	xori	ra,zero,240
800075d0:	0f000393          	li	t2,240
800075d4:	00708463          	beq	ra,t2,800075dc <test_3114>
800075d8:	2e00106f          	j	800088b8 <fail>

800075dc <test_3114>:
800075dc:	000011b7          	lui	gp,0x1
800075e0:	c2a18193          	addi	gp,gp,-982 # c2a <_start-0x7ffff3d6>
800075e4:	00ff00b7          	lui	ra,0xff0
800075e8:	0ff08093          	addi	ra,ra,255 # ff00ff <_start-0x7f00ff01>
800075ec:	70f0c013          	xori	zero,ra,1807
800075f0:	00000393          	li	t2,0
800075f4:	00700463          	beq	zero,t2,800075fc <test_3202>
800075f8:	2c00106f          	j	800088b8 <fail>

800075fc <test_3202>:
800075fc:	000011b7          	lui	gp,0x1
80007600:	c8218193          	addi	gp,gp,-894 # c82 <_start-0x7ffff37e>
80007604:	00000093          	li	ra,0
80007608:	00000113          	li	sp,0
8000760c:	0020f863          	bgeu	ra,sp,8000761c <test_3202+0x20>
80007610:	00300463          	beq	zero,gp,80007618 <test_3202+0x1c>
80007614:	2a40106f          	j	800088b8 <fail>
80007618:	00301863          	bne	zero,gp,80007628 <test_3203>
8000761c:	fe20fee3          	bgeu	ra,sp,80007618 <test_3202+0x1c>
80007620:	00300463          	beq	zero,gp,80007628 <test_3203>
80007624:	2940106f          	j	800088b8 <fail>

80007628 <test_3203>:
80007628:	000011b7          	lui	gp,0x1
8000762c:	c8318193          	addi	gp,gp,-893 # c83 <_start-0x7ffff37d>
80007630:	00100093          	li	ra,1
80007634:	00100113          	li	sp,1
80007638:	0020f863          	bgeu	ra,sp,80007648 <test_3203+0x20>
8000763c:	00300463          	beq	zero,gp,80007644 <test_3203+0x1c>
80007640:	2780106f          	j	800088b8 <fail>
80007644:	00301863          	bne	zero,gp,80007654 <test_3204>
80007648:	fe20fee3          	bgeu	ra,sp,80007644 <test_3203+0x1c>
8000764c:	00300463          	beq	zero,gp,80007654 <test_3204>
80007650:	2680106f          	j	800088b8 <fail>

80007654 <test_3204>:
80007654:	000011b7          	lui	gp,0x1
80007658:	c8418193          	addi	gp,gp,-892 # c84 <_start-0x7ffff37c>
8000765c:	fff00093          	li	ra,-1
80007660:	fff00113          	li	sp,-1
80007664:	0020f863          	bgeu	ra,sp,80007674 <test_3204+0x20>
80007668:	00300463          	beq	zero,gp,80007670 <test_3204+0x1c>
8000766c:	24c0106f          	j	800088b8 <fail>
80007670:	00301863          	bne	zero,gp,80007680 <test_3205>
80007674:	fe20fee3          	bgeu	ra,sp,80007670 <test_3204+0x1c>
80007678:	00300463          	beq	zero,gp,80007680 <test_3205>
8000767c:	23c0106f          	j	800088b8 <fail>

80007680 <test_3205>:
80007680:	000011b7          	lui	gp,0x1
80007684:	c8518193          	addi	gp,gp,-891 # c85 <_start-0x7ffff37b>
80007688:	00100093          	li	ra,1
8000768c:	00000113          	li	sp,0
80007690:	0020f863          	bgeu	ra,sp,800076a0 <test_3205+0x20>
80007694:	00300463          	beq	zero,gp,8000769c <test_3205+0x1c>
80007698:	2200106f          	j	800088b8 <fail>
8000769c:	00301863          	bne	zero,gp,800076ac <test_3206>
800076a0:	fe20fee3          	bgeu	ra,sp,8000769c <test_3205+0x1c>
800076a4:	00300463          	beq	zero,gp,800076ac <test_3206>
800076a8:	2100106f          	j	800088b8 <fail>

800076ac <test_3206>:
800076ac:	000011b7          	lui	gp,0x1
800076b0:	c8618193          	addi	gp,gp,-890 # c86 <_start-0x7ffff37a>
800076b4:	fff00093          	li	ra,-1
800076b8:	ffe00113          	li	sp,-2
800076bc:	0020f863          	bgeu	ra,sp,800076cc <test_3206+0x20>
800076c0:	00300463          	beq	zero,gp,800076c8 <test_3206+0x1c>
800076c4:	1f40106f          	j	800088b8 <fail>
800076c8:	00301863          	bne	zero,gp,800076d8 <test_3207>
800076cc:	fe20fee3          	bgeu	ra,sp,800076c8 <test_3206+0x1c>
800076d0:	00300463          	beq	zero,gp,800076d8 <test_3207>
800076d4:	1e40106f          	j	800088b8 <fail>

800076d8 <test_3207>:
800076d8:	000011b7          	lui	gp,0x1
800076dc:	c8718193          	addi	gp,gp,-889 # c87 <_start-0x7ffff379>
800076e0:	fff00093          	li	ra,-1
800076e4:	00000113          	li	sp,0
800076e8:	0020f863          	bgeu	ra,sp,800076f8 <test_3207+0x20>
800076ec:	00300463          	beq	zero,gp,800076f4 <test_3207+0x1c>
800076f0:	1c80106f          	j	800088b8 <fail>
800076f4:	00301863          	bne	zero,gp,80007704 <test_3208>
800076f8:	fe20fee3          	bgeu	ra,sp,800076f4 <test_3207+0x1c>
800076fc:	00300463          	beq	zero,gp,80007704 <test_3208>
80007700:	1b80106f          	j	800088b8 <fail>

80007704 <test_3208>:
80007704:	000011b7          	lui	gp,0x1
80007708:	c8818193          	addi	gp,gp,-888 # c88 <_start-0x7ffff378>
8000770c:	00000093          	li	ra,0
80007710:	00100113          	li	sp,1
80007714:	0020f463          	bgeu	ra,sp,8000771c <test_3208+0x18>
80007718:	00301663          	bne	zero,gp,80007724 <test_3208+0x20>
8000771c:	00300463          	beq	zero,gp,80007724 <test_3208+0x20>
80007720:	1980106f          	j	800088b8 <fail>
80007724:	fe20fce3          	bgeu	ra,sp,8000771c <test_3208+0x18>

80007728 <test_3209>:
80007728:	000011b7          	lui	gp,0x1
8000772c:	c8918193          	addi	gp,gp,-887 # c89 <_start-0x7ffff377>
80007730:	ffe00093          	li	ra,-2
80007734:	fff00113          	li	sp,-1
80007738:	0020f463          	bgeu	ra,sp,80007740 <test_3209+0x18>
8000773c:	00301663          	bne	zero,gp,80007748 <test_3209+0x20>
80007740:	00300463          	beq	zero,gp,80007748 <test_3209+0x20>
80007744:	1740106f          	j	800088b8 <fail>
80007748:	fe20fce3          	bgeu	ra,sp,80007740 <test_3209+0x18>

8000774c <test_3210>:
8000774c:	000011b7          	lui	gp,0x1
80007750:	c8a18193          	addi	gp,gp,-886 # c8a <_start-0x7ffff376>
80007754:	00000093          	li	ra,0
80007758:	fff00113          	li	sp,-1
8000775c:	0020f463          	bgeu	ra,sp,80007764 <test_3210+0x18>
80007760:	00301663          	bne	zero,gp,8000776c <test_3210+0x20>
80007764:	00300463          	beq	zero,gp,8000776c <test_3210+0x20>
80007768:	1500106f          	j	800088b8 <fail>
8000776c:	fe20fce3          	bgeu	ra,sp,80007764 <test_3210+0x18>

80007770 <test_3211>:
80007770:	000011b7          	lui	gp,0x1
80007774:	c8b18193          	addi	gp,gp,-885 # c8b <_start-0x7ffff375>
80007778:	800000b7          	lui	ra,0x80000
8000777c:	fff08093          	addi	ra,ra,-1 # 7fffffff <_end+0xffff5f2f>
80007780:	80000137          	lui	sp,0x80000
80007784:	0020f463          	bgeu	ra,sp,8000778c <test_3211+0x1c>
80007788:	00301663          	bne	zero,gp,80007794 <test_3211+0x24>
8000778c:	00300463          	beq	zero,gp,80007794 <test_3211+0x24>
80007790:	1280106f          	j	800088b8 <fail>
80007794:	fe20fce3          	bgeu	ra,sp,8000778c <test_3211+0x1c>

80007798 <test_3212>:
80007798:	000011b7          	lui	gp,0x1
8000779c:	c8c18193          	addi	gp,gp,-884 # c8c <_start-0x7ffff374>
800077a0:	00000213          	li	tp,0
800077a4:	f00000b7          	lui	ra,0xf0000
800077a8:	fff08093          	addi	ra,ra,-1 # efffffff <_end+0x6fff5f2f>
800077ac:	f0000137          	lui	sp,0xf0000
800077b0:	0020e463          	bltu	ra,sp,800077b8 <test_3212+0x20>
800077b4:	1040106f          	j	800088b8 <fail>
800077b8:	00120213          	addi	tp,tp,1 # 1 <_start-0x7fffffff>
800077bc:	00200293          	li	t0,2
800077c0:	fe5212e3          	bne	tp,t0,800077a4 <test_3212+0xc>

800077c4 <test_3213>:
800077c4:	000011b7          	lui	gp,0x1
800077c8:	c8d18193          	addi	gp,gp,-883 # c8d <_start-0x7ffff373>
800077cc:	00000213          	li	tp,0
800077d0:	f00000b7          	lui	ra,0xf0000
800077d4:	fff08093          	addi	ra,ra,-1 # efffffff <_end+0x6fff5f2f>
800077d8:	f0000137          	lui	sp,0xf0000
800077dc:	00000013          	nop
800077e0:	0020e463          	bltu	ra,sp,800077e8 <test_3213+0x24>
800077e4:	0d40106f          	j	800088b8 <fail>
800077e8:	00120213          	addi	tp,tp,1 # 1 <_start-0x7fffffff>
800077ec:	00200293          	li	t0,2
800077f0:	fe5210e3          	bne	tp,t0,800077d0 <test_3213+0xc>

800077f4 <test_3214>:
800077f4:	000011b7          	lui	gp,0x1
800077f8:	c8e18193          	addi	gp,gp,-882 # c8e <_start-0x7ffff372>
800077fc:	00000213          	li	tp,0
80007800:	f00000b7          	lui	ra,0xf0000
80007804:	fff08093          	addi	ra,ra,-1 # efffffff <_end+0x6fff5f2f>
80007808:	f0000137          	lui	sp,0xf0000
8000780c:	00000013          	nop
80007810:	00000013          	nop
80007814:	0020e463          	bltu	ra,sp,8000781c <test_3214+0x28>
80007818:	0a00106f          	j	800088b8 <fail>
8000781c:	00120213          	addi	tp,tp,1 # 1 <_start-0x7fffffff>
80007820:	00200293          	li	t0,2
80007824:	fc521ee3          	bne	tp,t0,80007800 <test_3214+0xc>

80007828 <test_3215>:
80007828:	000011b7          	lui	gp,0x1
8000782c:	c8f18193          	addi	gp,gp,-881 # c8f <_start-0x7ffff371>
80007830:	00000213          	li	tp,0
80007834:	f00000b7          	lui	ra,0xf0000
80007838:	fff08093          	addi	ra,ra,-1 # efffffff <_end+0x6fff5f2f>
8000783c:	00000013          	nop
80007840:	f0000137          	lui	sp,0xf0000
80007844:	0020e463          	bltu	ra,sp,8000784c <test_3215+0x24>
80007848:	0700106f          	j	800088b8 <fail>
8000784c:	00120213          	addi	tp,tp,1 # 1 <_start-0x7fffffff>
80007850:	00200293          	li	t0,2
80007854:	fe5210e3          	bne	tp,t0,80007834 <test_3215+0xc>

80007858 <test_3216>:
80007858:	000011b7          	lui	gp,0x1
8000785c:	c9018193          	addi	gp,gp,-880 # c90 <_start-0x7ffff370>
80007860:	00000213          	li	tp,0
80007864:	f00000b7          	lui	ra,0xf0000
80007868:	fff08093          	addi	ra,ra,-1 # efffffff <_end+0x6fff5f2f>
8000786c:	00000013          	nop
80007870:	f0000137          	lui	sp,0xf0000
80007874:	00000013          	nop
80007878:	0020e463          	bltu	ra,sp,80007880 <test_3216+0x28>
8000787c:	03c0106f          	j	800088b8 <fail>
80007880:	00120213          	addi	tp,tp,1 # 1 <_start-0x7fffffff>
80007884:	00200293          	li	t0,2
80007888:	fc521ee3          	bne	tp,t0,80007864 <test_3216+0xc>

8000788c <test_3217>:
8000788c:	000011b7          	lui	gp,0x1
80007890:	c9118193          	addi	gp,gp,-879 # c91 <_start-0x7ffff36f>
80007894:	00000213          	li	tp,0
80007898:	f00000b7          	lui	ra,0xf0000
8000789c:	fff08093          	addi	ra,ra,-1 # efffffff <_end+0x6fff5f2f>
800078a0:	00000013          	nop
800078a4:	00000013          	nop
800078a8:	f0000137          	lui	sp,0xf0000
800078ac:	0020e463          	bltu	ra,sp,800078b4 <test_3217+0x28>
800078b0:	0080106f          	j	800088b8 <fail>
800078b4:	00120213          	addi	tp,tp,1 # 1 <_start-0x7fffffff>
800078b8:	00200293          	li	t0,2
800078bc:	fc521ee3          	bne	tp,t0,80007898 <test_3217+0xc>

800078c0 <test_3218>:
800078c0:	000011b7          	lui	gp,0x1
800078c4:	c9218193          	addi	gp,gp,-878 # c92 <_start-0x7ffff36e>
800078c8:	00000213          	li	tp,0
800078cc:	f00000b7          	lui	ra,0xf0000
800078d0:	fff08093          	addi	ra,ra,-1 # efffffff <_end+0x6fff5f2f>
800078d4:	f0000137          	lui	sp,0xf0000
800078d8:	7e20f0e3          	bgeu	ra,sp,800088b8 <fail>
800078dc:	00120213          	addi	tp,tp,1 # 1 <_start-0x7fffffff>
800078e0:	00200293          	li	t0,2
800078e4:	fe5214e3          	bne	tp,t0,800078cc <test_3218+0xc>

800078e8 <test_3219>:
800078e8:	000011b7          	lui	gp,0x1
800078ec:	c9318193          	addi	gp,gp,-877 # c93 <_start-0x7ffff36d>
800078f0:	00000213          	li	tp,0
800078f4:	f00000b7          	lui	ra,0xf0000
800078f8:	fff08093          	addi	ra,ra,-1 # efffffff <_end+0x6fff5f2f>
800078fc:	f0000137          	lui	sp,0xf0000
80007900:	00000013          	nop
80007904:	7a20fae3          	bgeu	ra,sp,800088b8 <fail>
80007908:	00120213          	addi	tp,tp,1 # 1 <_start-0x7fffffff>
8000790c:	00200293          	li	t0,2
80007910:	fe5212e3          	bne	tp,t0,800078f4 <test_3219+0xc>

80007914 <test_3220>:
80007914:	000011b7          	lui	gp,0x1
80007918:	c9418193          	addi	gp,gp,-876 # c94 <_start-0x7ffff36c>
8000791c:	00000213          	li	tp,0
80007920:	f00000b7          	lui	ra,0xf0000
80007924:	fff08093          	addi	ra,ra,-1 # efffffff <_end+0x6fff5f2f>
80007928:	f0000137          	lui	sp,0xf0000
8000792c:	00000013          	nop
80007930:	00000013          	nop
80007934:	7820f2e3          	bgeu	ra,sp,800088b8 <fail>
80007938:	00120213          	addi	tp,tp,1 # 1 <_start-0x7fffffff>
8000793c:	00200293          	li	t0,2
80007940:	fe5210e3          	bne	tp,t0,80007920 <test_3220+0xc>

80007944 <test_3221>:
80007944:	000011b7          	lui	gp,0x1
80007948:	c9518193          	addi	gp,gp,-875 # c95 <_start-0x7ffff36b>
8000794c:	00000213          	li	tp,0
80007950:	f00000b7          	lui	ra,0xf0000
80007954:	fff08093          	addi	ra,ra,-1 # efffffff <_end+0x6fff5f2f>
80007958:	00000013          	nop
8000795c:	f0000137          	lui	sp,0xf0000
80007960:	7420fce3          	bgeu	ra,sp,800088b8 <fail>
80007964:	00120213          	addi	tp,tp,1 # 1 <_start-0x7fffffff>
80007968:	00200293          	li	t0,2
8000796c:	fe5212e3          	bne	tp,t0,80007950 <test_3221+0xc>

80007970 <test_3222>:
80007970:	000011b7          	lui	gp,0x1
80007974:	c9618193          	addi	gp,gp,-874 # c96 <_start-0x7ffff36a>
80007978:	00000213          	li	tp,0
8000797c:	f00000b7          	lui	ra,0xf0000
80007980:	fff08093          	addi	ra,ra,-1 # efffffff <_end+0x6fff5f2f>
80007984:	00000013          	nop
80007988:	f0000137          	lui	sp,0xf0000
8000798c:	00000013          	nop
80007990:	7220f4e3          	bgeu	ra,sp,800088b8 <fail>
80007994:	00120213          	addi	tp,tp,1 # 1 <_start-0x7fffffff>
80007998:	00200293          	li	t0,2
8000799c:	fe5210e3          	bne	tp,t0,8000797c <test_3222+0xc>

800079a0 <test_3223>:
800079a0:	000011b7          	lui	gp,0x1
800079a4:	c9718193          	addi	gp,gp,-873 # c97 <_start-0x7ffff369>
800079a8:	00000213          	li	tp,0
800079ac:	f00000b7          	lui	ra,0xf0000
800079b0:	fff08093          	addi	ra,ra,-1 # efffffff <_end+0x6fff5f2f>
800079b4:	00000013          	nop
800079b8:	00000013          	nop
800079bc:	f0000137          	lui	sp,0xf0000
800079c0:	6e20fce3          	bgeu	ra,sp,800088b8 <fail>
800079c4:	00120213          	addi	tp,tp,1 # 1 <_start-0x7fffffff>
800079c8:	00200293          	li	t0,2
800079cc:	fe5210e3          	bne	tp,t0,800079ac <test_3223+0xc>

800079d0 <test_3224>:
800079d0:	000011b7          	lui	gp,0x1
800079d4:	c9818193          	addi	gp,gp,-872 # c98 <_start-0x7ffff368>
800079d8:	00100093          	li	ra,1
800079dc:	0000fa63          	bgeu	ra,zero,800079f0 <test_3224+0x20>
800079e0:	00108093          	addi	ra,ra,1
800079e4:	00108093          	addi	ra,ra,1
800079e8:	00108093          	addi	ra,ra,1
800079ec:	00108093          	addi	ra,ra,1
800079f0:	00108093          	addi	ra,ra,1
800079f4:	00108093          	addi	ra,ra,1
800079f8:	00300393          	li	t2,3
800079fc:	6a709ee3          	bne	ra,t2,800088b8 <fail>

80007a00 <test_3302>:
80007a00:	000011b7          	lui	gp,0x1
80007a04:	ce618193          	addi	gp,gp,-794 # ce6 <_start-0x7ffff31a>
80007a08:	00000093          	li	ra,0
80007a0c:	00100113          	li	sp,1
80007a10:	0020e663          	bltu	ra,sp,80007a1c <test_3302+0x1c>
80007a14:	6a3012e3          	bne	zero,gp,800088b8 <fail>
80007a18:	00301663          	bne	zero,gp,80007a24 <test_3303>
80007a1c:	fe20eee3          	bltu	ra,sp,80007a18 <test_3302+0x18>
80007a20:	68301ce3          	bne	zero,gp,800088b8 <fail>

80007a24 <test_3303>:
80007a24:	000011b7          	lui	gp,0x1
80007a28:	ce718193          	addi	gp,gp,-793 # ce7 <_start-0x7ffff319>
80007a2c:	ffe00093          	li	ra,-2
80007a30:	fff00113          	li	sp,-1
80007a34:	0020e663          	bltu	ra,sp,80007a40 <test_3303+0x1c>
80007a38:	683010e3          	bne	zero,gp,800088b8 <fail>
80007a3c:	00301663          	bne	zero,gp,80007a48 <test_3304>
80007a40:	fe20eee3          	bltu	ra,sp,80007a3c <test_3303+0x18>
80007a44:	66301ae3          	bne	zero,gp,800088b8 <fail>

80007a48 <test_3304>:
80007a48:	000011b7          	lui	gp,0x1
80007a4c:	ce818193          	addi	gp,gp,-792 # ce8 <_start-0x7ffff318>
80007a50:	00000093          	li	ra,0
80007a54:	fff00113          	li	sp,-1
80007a58:	0020e663          	bltu	ra,sp,80007a64 <test_3304+0x1c>
80007a5c:	64301ee3          	bne	zero,gp,800088b8 <fail>
80007a60:	00301663          	bne	zero,gp,80007a6c <test_3305>
80007a64:	fe20eee3          	bltu	ra,sp,80007a60 <test_3304+0x18>
80007a68:	643018e3          	bne	zero,gp,800088b8 <fail>

80007a6c <test_3305>:
80007a6c:	000011b7          	lui	gp,0x1
80007a70:	ce918193          	addi	gp,gp,-791 # ce9 <_start-0x7ffff317>
80007a74:	00100093          	li	ra,1
80007a78:	00000113          	li	sp,0
80007a7c:	0020e463          	bltu	ra,sp,80007a84 <test_3305+0x18>
80007a80:	00301463          	bne	zero,gp,80007a88 <test_3305+0x1c>
80007a84:	62301ae3          	bne	zero,gp,800088b8 <fail>
80007a88:	fe20eee3          	bltu	ra,sp,80007a84 <test_3305+0x18>

80007a8c <test_3306>:
80007a8c:	000011b7          	lui	gp,0x1
80007a90:	cea18193          	addi	gp,gp,-790 # cea <_start-0x7ffff316>
80007a94:	fff00093          	li	ra,-1
80007a98:	ffe00113          	li	sp,-2
80007a9c:	0020e463          	bltu	ra,sp,80007aa4 <test_3306+0x18>
80007aa0:	00301463          	bne	zero,gp,80007aa8 <test_3306+0x1c>
80007aa4:	60301ae3          	bne	zero,gp,800088b8 <fail>
80007aa8:	fe20eee3          	bltu	ra,sp,80007aa4 <test_3306+0x18>

80007aac <test_3307>:
80007aac:	000011b7          	lui	gp,0x1
80007ab0:	ceb18193          	addi	gp,gp,-789 # ceb <_start-0x7ffff315>
80007ab4:	fff00093          	li	ra,-1
80007ab8:	00000113          	li	sp,0
80007abc:	0020e463          	bltu	ra,sp,80007ac4 <test_3307+0x18>
80007ac0:	00301463          	bne	zero,gp,80007ac8 <test_3307+0x1c>
80007ac4:	5e301ae3          	bne	zero,gp,800088b8 <fail>
80007ac8:	fe20eee3          	bltu	ra,sp,80007ac4 <test_3307+0x18>

80007acc <test_3308>:
80007acc:	000011b7          	lui	gp,0x1
80007ad0:	cec18193          	addi	gp,gp,-788 # cec <_start-0x7ffff314>
80007ad4:	800000b7          	lui	ra,0x80000
80007ad8:	80000137          	lui	sp,0x80000
80007adc:	fff10113          	addi	sp,sp,-1 # 7fffffff <_end+0xffff5f2f>
80007ae0:	0020e463          	bltu	ra,sp,80007ae8 <test_3308+0x1c>
80007ae4:	00301463          	bne	zero,gp,80007aec <test_3308+0x20>
80007ae8:	5c3018e3          	bne	zero,gp,800088b8 <fail>
80007aec:	fe20eee3          	bltu	ra,sp,80007ae8 <test_3308+0x1c>

80007af0 <test_3309>:
80007af0:	000011b7          	lui	gp,0x1
80007af4:	ced18193          	addi	gp,gp,-787 # ced <_start-0x7ffff313>
80007af8:	00000213          	li	tp,0
80007afc:	f00000b7          	lui	ra,0xf0000
80007b00:	f0000137          	lui	sp,0xf0000
80007b04:	fff10113          	addi	sp,sp,-1 # efffffff <_end+0x6fff5f2f>
80007b08:	5a20e8e3          	bltu	ra,sp,800088b8 <fail>
80007b0c:	00120213          	addi	tp,tp,1 # 1 <_start-0x7fffffff>
80007b10:	00200293          	li	t0,2
80007b14:	fe5214e3          	bne	tp,t0,80007afc <test_3309+0xc>

80007b18 <test_3310>:
80007b18:	000011b7          	lui	gp,0x1
80007b1c:	cee18193          	addi	gp,gp,-786 # cee <_start-0x7ffff312>
80007b20:	00000213          	li	tp,0
80007b24:	f00000b7          	lui	ra,0xf0000
80007b28:	f0000137          	lui	sp,0xf0000
80007b2c:	fff10113          	addi	sp,sp,-1 # efffffff <_end+0x6fff5f2f>
80007b30:	00000013          	nop
80007b34:	5820e2e3          	bltu	ra,sp,800088b8 <fail>
80007b38:	00120213          	addi	tp,tp,1 # 1 <_start-0x7fffffff>
80007b3c:	00200293          	li	t0,2
80007b40:	fe5212e3          	bne	tp,t0,80007b24 <test_3310+0xc>

80007b44 <test_3311>:
80007b44:	000011b7          	lui	gp,0x1
80007b48:	cef18193          	addi	gp,gp,-785 # cef <_start-0x7ffff311>
80007b4c:	00000213          	li	tp,0
80007b50:	f00000b7          	lui	ra,0xf0000
80007b54:	f0000137          	lui	sp,0xf0000
80007b58:	fff10113          	addi	sp,sp,-1 # efffffff <_end+0x6fff5f2f>
80007b5c:	00000013          	nop
80007b60:	00000013          	nop
80007b64:	5420eae3          	bltu	ra,sp,800088b8 <fail>
80007b68:	00120213          	addi	tp,tp,1 # 1 <_start-0x7fffffff>
80007b6c:	00200293          	li	t0,2
80007b70:	fe5210e3          	bne	tp,t0,80007b50 <test_3311+0xc>

80007b74 <test_3312>:
80007b74:	000011b7          	lui	gp,0x1
80007b78:	cf018193          	addi	gp,gp,-784 # cf0 <_start-0x7ffff310>
80007b7c:	00000213          	li	tp,0
80007b80:	f00000b7          	lui	ra,0xf0000
80007b84:	00000013          	nop
80007b88:	f0000137          	lui	sp,0xf0000
80007b8c:	fff10113          	addi	sp,sp,-1 # efffffff <_end+0x6fff5f2f>
80007b90:	5220e4e3          	bltu	ra,sp,800088b8 <fail>
80007b94:	00120213          	addi	tp,tp,1 # 1 <_start-0x7fffffff>
80007b98:	00200293          	li	t0,2
80007b9c:	fe5212e3          	bne	tp,t0,80007b80 <test_3312+0xc>

80007ba0 <test_3313>:
80007ba0:	000011b7          	lui	gp,0x1
80007ba4:	cf118193          	addi	gp,gp,-783 # cf1 <_start-0x7ffff30f>
80007ba8:	00000213          	li	tp,0
80007bac:	f00000b7          	lui	ra,0xf0000
80007bb0:	00000013          	nop
80007bb4:	f0000137          	lui	sp,0xf0000
80007bb8:	fff10113          	addi	sp,sp,-1 # efffffff <_end+0x6fff5f2f>
80007bbc:	00000013          	nop
80007bc0:	4e20ece3          	bltu	ra,sp,800088b8 <fail>
80007bc4:	00120213          	addi	tp,tp,1 # 1 <_start-0x7fffffff>
80007bc8:	00200293          	li	t0,2
80007bcc:	fe5210e3          	bne	tp,t0,80007bac <test_3313+0xc>

80007bd0 <test_3314>:
80007bd0:	000011b7          	lui	gp,0x1
80007bd4:	cf218193          	addi	gp,gp,-782 # cf2 <_start-0x7ffff30e>
80007bd8:	00000213          	li	tp,0
80007bdc:	f00000b7          	lui	ra,0xf0000
80007be0:	00000013          	nop
80007be4:	00000013          	nop
80007be8:	f0000137          	lui	sp,0xf0000
80007bec:	fff10113          	addi	sp,sp,-1 # efffffff <_end+0x6fff5f2f>
80007bf0:	4c20e4e3          	bltu	ra,sp,800088b8 <fail>
80007bf4:	00120213          	addi	tp,tp,1 # 1 <_start-0x7fffffff>
80007bf8:	00200293          	li	t0,2
80007bfc:	fe5210e3          	bne	tp,t0,80007bdc <test_3314+0xc>

80007c00 <test_3315>:
80007c00:	000011b7          	lui	gp,0x1
80007c04:	cf318193          	addi	gp,gp,-781 # cf3 <_start-0x7ffff30d>
80007c08:	00000213          	li	tp,0
80007c0c:	f00000b7          	lui	ra,0xf0000
80007c10:	f0000137          	lui	sp,0xf0000
80007c14:	fff10113          	addi	sp,sp,-1 # efffffff <_end+0x6fff5f2f>
80007c18:	4a20e0e3          	bltu	ra,sp,800088b8 <fail>
80007c1c:	00120213          	addi	tp,tp,1 # 1 <_start-0x7fffffff>
80007c20:	00200293          	li	t0,2
80007c24:	fe5214e3          	bne	tp,t0,80007c0c <test_3315+0xc>

80007c28 <test_3316>:
80007c28:	000011b7          	lui	gp,0x1
80007c2c:	cf418193          	addi	gp,gp,-780 # cf4 <_start-0x7ffff30c>
80007c30:	00000213          	li	tp,0
80007c34:	f00000b7          	lui	ra,0xf0000
80007c38:	f0000137          	lui	sp,0xf0000
80007c3c:	fff10113          	addi	sp,sp,-1 # efffffff <_end+0x6fff5f2f>
80007c40:	00000013          	nop
80007c44:	4620eae3          	bltu	ra,sp,800088b8 <fail>
80007c48:	00120213          	addi	tp,tp,1 # 1 <_start-0x7fffffff>
80007c4c:	00200293          	li	t0,2
80007c50:	fe5212e3          	bne	tp,t0,80007c34 <test_3316+0xc>

80007c54 <test_3317>:
80007c54:	000011b7          	lui	gp,0x1
80007c58:	cf518193          	addi	gp,gp,-779 # cf5 <_start-0x7ffff30b>
80007c5c:	00000213          	li	tp,0
80007c60:	f00000b7          	lui	ra,0xf0000
80007c64:	f0000137          	lui	sp,0xf0000
80007c68:	fff10113          	addi	sp,sp,-1 # efffffff <_end+0x6fff5f2f>
80007c6c:	00000013          	nop
80007c70:	00000013          	nop
80007c74:	4420e2e3          	bltu	ra,sp,800088b8 <fail>
80007c78:	00120213          	addi	tp,tp,1 # 1 <_start-0x7fffffff>
80007c7c:	00200293          	li	t0,2
80007c80:	fe5210e3          	bne	tp,t0,80007c60 <test_3317+0xc>

80007c84 <test_3318>:
80007c84:	000011b7          	lui	gp,0x1
80007c88:	cf618193          	addi	gp,gp,-778 # cf6 <_start-0x7ffff30a>
80007c8c:	00000213          	li	tp,0
80007c90:	f00000b7          	lui	ra,0xf0000
80007c94:	00000013          	nop
80007c98:	f0000137          	lui	sp,0xf0000
80007c9c:	fff10113          	addi	sp,sp,-1 # efffffff <_end+0x6fff5f2f>
80007ca0:	4020ece3          	bltu	ra,sp,800088b8 <fail>
80007ca4:	00120213          	addi	tp,tp,1 # 1 <_start-0x7fffffff>
80007ca8:	00200293          	li	t0,2
80007cac:	fe5212e3          	bne	tp,t0,80007c90 <test_3318+0xc>

80007cb0 <test_3319>:
80007cb0:	000011b7          	lui	gp,0x1
80007cb4:	cf718193          	addi	gp,gp,-777 # cf7 <_start-0x7ffff309>
80007cb8:	00000213          	li	tp,0
80007cbc:	f00000b7          	lui	ra,0xf0000
80007cc0:	00000013          	nop
80007cc4:	f0000137          	lui	sp,0xf0000
80007cc8:	fff10113          	addi	sp,sp,-1 # efffffff <_end+0x6fff5f2f>
80007ccc:	00000013          	nop
80007cd0:	3e20e4e3          	bltu	ra,sp,800088b8 <fail>
80007cd4:	00120213          	addi	tp,tp,1 # 1 <_start-0x7fffffff>
80007cd8:	00200293          	li	t0,2
80007cdc:	fe5210e3          	bne	tp,t0,80007cbc <test_3319+0xc>

80007ce0 <test_3320>:
80007ce0:	000011b7          	lui	gp,0x1
80007ce4:	cf818193          	addi	gp,gp,-776 # cf8 <_start-0x7ffff308>
80007ce8:	00000213          	li	tp,0
80007cec:	f00000b7          	lui	ra,0xf0000
80007cf0:	00000013          	nop
80007cf4:	00000013          	nop
80007cf8:	f0000137          	lui	sp,0xf0000
80007cfc:	fff10113          	addi	sp,sp,-1 # efffffff <_end+0x6fff5f2f>
80007d00:	3a20ece3          	bltu	ra,sp,800088b8 <fail>
80007d04:	00120213          	addi	tp,tp,1 # 1 <_start-0x7fffffff>
80007d08:	00200293          	li	t0,2
80007d0c:	fe5210e3          	bne	tp,t0,80007cec <test_3320+0xc>

80007d10 <test_3321>:
80007d10:	000011b7          	lui	gp,0x1
80007d14:	cf918193          	addi	gp,gp,-775 # cf9 <_start-0x7ffff307>
80007d18:	00100093          	li	ra,1
80007d1c:	00106a63          	bltu	zero,ra,80007d30 <test_3321+0x20>
80007d20:	00108093          	addi	ra,ra,1 # f0000001 <_end+0x6fff5f31>
80007d24:	00108093          	addi	ra,ra,1
80007d28:	00108093          	addi	ra,ra,1
80007d2c:	00108093          	addi	ra,ra,1
80007d30:	00108093          	addi	ra,ra,1
80007d34:	00108093          	addi	ra,ra,1
80007d38:	00300393          	li	t2,3
80007d3c:	36709ee3          	bne	ra,t2,800088b8 <fail>

80007d40 <test_3402>:
80007d40:	000011b7          	lui	gp,0x1
80007d44:	d4a18193          	addi	gp,gp,-694 # d4a <_start-0x7ffff2b6>
80007d48:	0ff00793          	li	a5,255
80007d4c:	00002097          	auipc	ra,0x2
80007d50:	33408093          	addi	ra,ra,820 # 8000a080 <lbu_tdat>
80007d54:	0000c703          	lbu	a4,0(ra)
80007d58:	0ff00393          	li	t2,255
80007d5c:	34771ee3          	bne	a4,t2,800088b8 <fail>

80007d60 <test_3403>:
80007d60:	000011b7          	lui	gp,0x1
80007d64:	d4b18193          	addi	gp,gp,-693 # d4b <_start-0x7ffff2b5>
80007d68:	00000793          	li	a5,0
80007d6c:	00002097          	auipc	ra,0x2
80007d70:	31408093          	addi	ra,ra,788 # 8000a080 <lbu_tdat>
80007d74:	0010c703          	lbu	a4,1(ra)
80007d78:	00000393          	li	t2,0
80007d7c:	32771ee3          	bne	a4,t2,800088b8 <fail>

80007d80 <test_3404>:
80007d80:	000011b7          	lui	gp,0x1
80007d84:	d4c18193          	addi	gp,gp,-692 # d4c <_start-0x7ffff2b4>
80007d88:	0f000793          	li	a5,240
80007d8c:	00002097          	auipc	ra,0x2
80007d90:	2f408093          	addi	ra,ra,756 # 8000a080 <lbu_tdat>
80007d94:	0020c703          	lbu	a4,2(ra)
80007d98:	0f000393          	li	t2,240
80007d9c:	30771ee3          	bne	a4,t2,800088b8 <fail>

80007da0 <test_3405>:
80007da0:	000011b7          	lui	gp,0x1
80007da4:	d4d18193          	addi	gp,gp,-691 # d4d <_start-0x7ffff2b3>
80007da8:	00f00793          	li	a5,15
80007dac:	00002097          	auipc	ra,0x2
80007db0:	2d408093          	addi	ra,ra,724 # 8000a080 <lbu_tdat>
80007db4:	0030c703          	lbu	a4,3(ra)
80007db8:	00f00393          	li	t2,15
80007dbc:	2e771ee3          	bne	a4,t2,800088b8 <fail>

80007dc0 <test_3406>:
80007dc0:	000011b7          	lui	gp,0x1
80007dc4:	d4e18193          	addi	gp,gp,-690 # d4e <_start-0x7ffff2b2>
80007dc8:	0ff00793          	li	a5,255
80007dcc:	00002097          	auipc	ra,0x2
80007dd0:	2b708093          	addi	ra,ra,695 # 8000a083 <lbu_tdat4>
80007dd4:	ffd0c703          	lbu	a4,-3(ra)
80007dd8:	0ff00393          	li	t2,255
80007ddc:	2c771ee3          	bne	a4,t2,800088b8 <fail>

80007de0 <test_3407>:
80007de0:	000011b7          	lui	gp,0x1
80007de4:	d4f18193          	addi	gp,gp,-689 # d4f <_start-0x7ffff2b1>
80007de8:	00000793          	li	a5,0
80007dec:	00002097          	auipc	ra,0x2
80007df0:	29708093          	addi	ra,ra,663 # 8000a083 <lbu_tdat4>
80007df4:	ffe0c703          	lbu	a4,-2(ra)
80007df8:	00000393          	li	t2,0
80007dfc:	2a771ee3          	bne	a4,t2,800088b8 <fail>

80007e00 <test_3408>:
80007e00:	000011b7          	lui	gp,0x1
80007e04:	d5018193          	addi	gp,gp,-688 # d50 <_start-0x7ffff2b0>
80007e08:	0f000793          	li	a5,240
80007e0c:	00002097          	auipc	ra,0x2
80007e10:	27708093          	addi	ra,ra,631 # 8000a083 <lbu_tdat4>
80007e14:	fff0c703          	lbu	a4,-1(ra)
80007e18:	0f000393          	li	t2,240
80007e1c:	28771ee3          	bne	a4,t2,800088b8 <fail>

80007e20 <test_3409>:
80007e20:	000011b7          	lui	gp,0x1
80007e24:	d5118193          	addi	gp,gp,-687 # d51 <_start-0x7ffff2af>
80007e28:	00f00793          	li	a5,15
80007e2c:	00002097          	auipc	ra,0x2
80007e30:	25708093          	addi	ra,ra,599 # 8000a083 <lbu_tdat4>
80007e34:	0000c703          	lbu	a4,0(ra)
80007e38:	00f00393          	li	t2,15
80007e3c:	26771ee3          	bne	a4,t2,800088b8 <fail>

80007e40 <test_3410>:
80007e40:	000011b7          	lui	gp,0x1
80007e44:	d5218193          	addi	gp,gp,-686 # d52 <_start-0x7ffff2ae>
80007e48:	00002097          	auipc	ra,0x2
80007e4c:	23808093          	addi	ra,ra,568 # 8000a080 <lbu_tdat>
80007e50:	fe008093          	addi	ra,ra,-32
80007e54:	0200c283          	lbu	t0,32(ra)
80007e58:	0ff00393          	li	t2,255
80007e5c:	24729ee3          	bne	t0,t2,800088b8 <fail>

80007e60 <test_3411>:
80007e60:	000011b7          	lui	gp,0x1
80007e64:	d5318193          	addi	gp,gp,-685 # d53 <_start-0x7ffff2ad>
80007e68:	00002097          	auipc	ra,0x2
80007e6c:	21808093          	addi	ra,ra,536 # 8000a080 <lbu_tdat>
80007e70:	ffa08093          	addi	ra,ra,-6
80007e74:	0070c283          	lbu	t0,7(ra)
80007e78:	00000393          	li	t2,0
80007e7c:	22729ee3          	bne	t0,t2,800088b8 <fail>

80007e80 <test_3412>:
80007e80:	000011b7          	lui	gp,0x1
80007e84:	d5418193          	addi	gp,gp,-684 # d54 <_start-0x7ffff2ac>
80007e88:	00000213          	li	tp,0
80007e8c:	00002097          	auipc	ra,0x2
80007e90:	1f508093          	addi	ra,ra,501 # 8000a081 <lbu_tdat2>
80007e94:	0010c703          	lbu	a4,1(ra)
80007e98:	00070313          	mv	t1,a4
80007e9c:	0f000393          	li	t2,240
80007ea0:	20731ce3          	bne	t1,t2,800088b8 <fail>
80007ea4:	00120213          	addi	tp,tp,1 # 1 <_start-0x7fffffff>
80007ea8:	00200293          	li	t0,2
80007eac:	fe5210e3          	bne	tp,t0,80007e8c <test_3412+0xc>

80007eb0 <test_3413>:
80007eb0:	000011b7          	lui	gp,0x1
80007eb4:	d5518193          	addi	gp,gp,-683 # d55 <_start-0x7ffff2ab>
80007eb8:	00000213          	li	tp,0
80007ebc:	00002097          	auipc	ra,0x2
80007ec0:	1c608093          	addi	ra,ra,454 # 8000a082 <lbu_tdat3>
80007ec4:	0010c703          	lbu	a4,1(ra)
80007ec8:	00000013          	nop
80007ecc:	00070313          	mv	t1,a4
80007ed0:	00f00393          	li	t2,15
80007ed4:	1e7312e3          	bne	t1,t2,800088b8 <fail>
80007ed8:	00120213          	addi	tp,tp,1 # 1 <_start-0x7fffffff>
80007edc:	00200293          	li	t0,2
80007ee0:	fc521ee3          	bne	tp,t0,80007ebc <test_3413+0xc>

80007ee4 <test_3414>:
80007ee4:	000011b7          	lui	gp,0x1
80007ee8:	d5618193          	addi	gp,gp,-682 # d56 <_start-0x7ffff2aa>
80007eec:	00000213          	li	tp,0
80007ef0:	00002097          	auipc	ra,0x2
80007ef4:	19008093          	addi	ra,ra,400 # 8000a080 <lbu_tdat>
80007ef8:	0010c703          	lbu	a4,1(ra)
80007efc:	00000013          	nop
80007f00:	00000013          	nop
80007f04:	00070313          	mv	t1,a4
80007f08:	00000393          	li	t2,0
80007f0c:	1a7316e3          	bne	t1,t2,800088b8 <fail>
80007f10:	00120213          	addi	tp,tp,1 # 1 <_start-0x7fffffff>
80007f14:	00200293          	li	t0,2
80007f18:	fc521ce3          	bne	tp,t0,80007ef0 <test_3414+0xc>

80007f1c <test_3415>:
80007f1c:	000011b7          	lui	gp,0x1
80007f20:	d5718193          	addi	gp,gp,-681 # d57 <_start-0x7ffff2a9>
80007f24:	00000213          	li	tp,0
80007f28:	00002097          	auipc	ra,0x2
80007f2c:	15908093          	addi	ra,ra,345 # 8000a081 <lbu_tdat2>
80007f30:	0010c703          	lbu	a4,1(ra)
80007f34:	0f000393          	li	t2,240
80007f38:	187710e3          	bne	a4,t2,800088b8 <fail>
80007f3c:	00120213          	addi	tp,tp,1 # 1 <_start-0x7fffffff>
80007f40:	00200293          	li	t0,2
80007f44:	fe5212e3          	bne	tp,t0,80007f28 <test_3415+0xc>

80007f48 <test_3416>:
80007f48:	000011b7          	lui	gp,0x1
80007f4c:	d5818193          	addi	gp,gp,-680 # d58 <_start-0x7ffff2a8>
80007f50:	00000213          	li	tp,0
80007f54:	00002097          	auipc	ra,0x2
80007f58:	12e08093          	addi	ra,ra,302 # 8000a082 <lbu_tdat3>
80007f5c:	00000013          	nop
80007f60:	0010c703          	lbu	a4,1(ra)
80007f64:	00f00393          	li	t2,15
80007f68:	147718e3          	bne	a4,t2,800088b8 <fail>
80007f6c:	00120213          	addi	tp,tp,1 # 1 <_start-0x7fffffff>
80007f70:	00200293          	li	t0,2
80007f74:	fe5210e3          	bne	tp,t0,80007f54 <test_3416+0xc>

80007f78 <test_3417>:
80007f78:	000011b7          	lui	gp,0x1
80007f7c:	d5918193          	addi	gp,gp,-679 # d59 <_start-0x7ffff2a7>
80007f80:	00000213          	li	tp,0
80007f84:	00002097          	auipc	ra,0x2
80007f88:	0fc08093          	addi	ra,ra,252 # 8000a080 <lbu_tdat>
80007f8c:	00000013          	nop
80007f90:	00000013          	nop
80007f94:	0010c703          	lbu	a4,1(ra)
80007f98:	00000393          	li	t2,0
80007f9c:	10771ee3          	bne	a4,t2,800088b8 <fail>
80007fa0:	00120213          	addi	tp,tp,1 # 1 <_start-0x7fffffff>
80007fa4:	00200293          	li	t0,2
80007fa8:	fc521ee3          	bne	tp,t0,80007f84 <test_3417+0xc>

80007fac <test_3418>:
80007fac:	000011b7          	lui	gp,0x1
80007fb0:	d5a18193          	addi	gp,gp,-678 # d5a <_start-0x7ffff2a6>
80007fb4:	00002297          	auipc	t0,0x2
80007fb8:	0cc28293          	addi	t0,t0,204 # 8000a080 <lbu_tdat>
80007fbc:	0002c103          	lbu	sp,0(t0)
80007fc0:	00200113          	li	sp,2
80007fc4:	00200393          	li	t2,2
80007fc8:	0e7118e3          	bne	sp,t2,800088b8 <fail>

80007fcc <test_3419>:
80007fcc:	000011b7          	lui	gp,0x1
80007fd0:	d5b18193          	addi	gp,gp,-677 # d5b <_start-0x7ffff2a5>
80007fd4:	00002297          	auipc	t0,0x2
80007fd8:	0ac28293          	addi	t0,t0,172 # 8000a080 <lbu_tdat>
80007fdc:	0002c103          	lbu	sp,0(t0)
80007fe0:	00000013          	nop
80007fe4:	00200113          	li	sp,2
80007fe8:	00200393          	li	t2,2
80007fec:	0c7116e3          	bne	sp,t2,800088b8 <fail>

80007ff0 <test_3502>:
80007ff0:	000011b7          	lui	gp,0x1
80007ff4:	dae18193          	addi	gp,gp,-594 # dae <_start-0x7ffff252>
80007ff8:	0ff00793          	li	a5,255
80007ffc:	00002097          	auipc	ra,0x2
80008000:	09408093          	addi	ra,ra,148 # 8000a090 <lhu_tdat>
80008004:	0000d703          	lhu	a4,0(ra)
80008008:	0ff00393          	li	t2,255
8000800c:	0a7716e3          	bne	a4,t2,800088b8 <fail>

80008010 <test_3503>:
80008010:	000011b7          	lui	gp,0x1
80008014:	daf18193          	addi	gp,gp,-593 # daf <_start-0x7ffff251>
80008018:	000107b7          	lui	a5,0x10
8000801c:	f0078793          	addi	a5,a5,-256 # ff00 <_start-0x7fff0100>
80008020:	00002097          	auipc	ra,0x2
80008024:	07008093          	addi	ra,ra,112 # 8000a090 <lhu_tdat>
80008028:	0020d703          	lhu	a4,2(ra)
8000802c:	000103b7          	lui	t2,0x10
80008030:	f0038393          	addi	t2,t2,-256 # ff00 <_start-0x7fff0100>
80008034:	087712e3          	bne	a4,t2,800088b8 <fail>

80008038 <test_3504>:
80008038:	000011b7          	lui	gp,0x1
8000803c:	db018193          	addi	gp,gp,-592 # db0 <_start-0x7ffff250>
80008040:	000017b7          	lui	a5,0x1
80008044:	ff078793          	addi	a5,a5,-16 # ff0 <_start-0x7ffff010>
80008048:	00002097          	auipc	ra,0x2
8000804c:	04808093          	addi	ra,ra,72 # 8000a090 <lhu_tdat>
80008050:	0040d703          	lhu	a4,4(ra)
80008054:	000013b7          	lui	t2,0x1
80008058:	ff038393          	addi	t2,t2,-16 # ff0 <_start-0x7ffff010>
8000805c:	04771ee3          	bne	a4,t2,800088b8 <fail>

80008060 <test_3505>:
80008060:	000011b7          	lui	gp,0x1
80008064:	db118193          	addi	gp,gp,-591 # db1 <_start-0x7ffff24f>
80008068:	0000f7b7          	lui	a5,0xf
8000806c:	00f78793          	addi	a5,a5,15 # f00f <_start-0x7fff0ff1>
80008070:	00002097          	auipc	ra,0x2
80008074:	02008093          	addi	ra,ra,32 # 8000a090 <lhu_tdat>
80008078:	0060d703          	lhu	a4,6(ra)
8000807c:	0000f3b7          	lui	t2,0xf
80008080:	00f38393          	addi	t2,t2,15 # f00f <_start-0x7fff0ff1>
80008084:	02771ae3          	bne	a4,t2,800088b8 <fail>

80008088 <test_3506>:
80008088:	000011b7          	lui	gp,0x1
8000808c:	db218193          	addi	gp,gp,-590 # db2 <_start-0x7ffff24e>
80008090:	0ff00793          	li	a5,255
80008094:	00002097          	auipc	ra,0x2
80008098:	00208093          	addi	ra,ra,2 # 8000a096 <lhu_tdat4>
8000809c:	ffa0d703          	lhu	a4,-6(ra)
800080a0:	0ff00393          	li	t2,255
800080a4:	00771ae3          	bne	a4,t2,800088b8 <fail>

800080a8 <test_3507>:
800080a8:	000011b7          	lui	gp,0x1
800080ac:	db318193          	addi	gp,gp,-589 # db3 <_start-0x7ffff24d>
800080b0:	000107b7          	lui	a5,0x10
800080b4:	f0078793          	addi	a5,a5,-256 # ff00 <_start-0x7fff0100>
800080b8:	00002097          	auipc	ra,0x2
800080bc:	fde08093          	addi	ra,ra,-34 # 8000a096 <lhu_tdat4>
800080c0:	ffc0d703          	lhu	a4,-4(ra)
800080c4:	000103b7          	lui	t2,0x10
800080c8:	f0038393          	addi	t2,t2,-256 # ff00 <_start-0x7fff0100>
800080cc:	7e771663          	bne	a4,t2,800088b8 <fail>

800080d0 <test_3508>:
800080d0:	000011b7          	lui	gp,0x1
800080d4:	db418193          	addi	gp,gp,-588 # db4 <_start-0x7ffff24c>
800080d8:	000017b7          	lui	a5,0x1
800080dc:	ff078793          	addi	a5,a5,-16 # ff0 <_start-0x7ffff010>
800080e0:	00002097          	auipc	ra,0x2
800080e4:	fb608093          	addi	ra,ra,-74 # 8000a096 <lhu_tdat4>
800080e8:	ffe0d703          	lhu	a4,-2(ra)
800080ec:	000013b7          	lui	t2,0x1
800080f0:	ff038393          	addi	t2,t2,-16 # ff0 <_start-0x7ffff010>
800080f4:	7c771263          	bne	a4,t2,800088b8 <fail>

800080f8 <test_3509>:
800080f8:	000011b7          	lui	gp,0x1
800080fc:	db518193          	addi	gp,gp,-587 # db5 <_start-0x7ffff24b>
80008100:	0000f7b7          	lui	a5,0xf
80008104:	00f78793          	addi	a5,a5,15 # f00f <_start-0x7fff0ff1>
80008108:	00002097          	auipc	ra,0x2
8000810c:	f8e08093          	addi	ra,ra,-114 # 8000a096 <lhu_tdat4>
80008110:	0000d703          	lhu	a4,0(ra)
80008114:	0000f3b7          	lui	t2,0xf
80008118:	00f38393          	addi	t2,t2,15 # f00f <_start-0x7fff0ff1>
8000811c:	78771e63          	bne	a4,t2,800088b8 <fail>

80008120 <test_3510>:
80008120:	000011b7          	lui	gp,0x1
80008124:	db618193          	addi	gp,gp,-586 # db6 <_start-0x7ffff24a>
80008128:	00002097          	auipc	ra,0x2
8000812c:	f6808093          	addi	ra,ra,-152 # 8000a090 <lhu_tdat>
80008130:	fe008093          	addi	ra,ra,-32
80008134:	0200d283          	lhu	t0,32(ra)
80008138:	0ff00393          	li	t2,255
8000813c:	76729e63          	bne	t0,t2,800088b8 <fail>

80008140 <test_3511>:
80008140:	000011b7          	lui	gp,0x1
80008144:	db718193          	addi	gp,gp,-585 # db7 <_start-0x7ffff249>
80008148:	00002097          	auipc	ra,0x2
8000814c:	f4808093          	addi	ra,ra,-184 # 8000a090 <lhu_tdat>
80008150:	ffb08093          	addi	ra,ra,-5
80008154:	0070d283          	lhu	t0,7(ra)
80008158:	000103b7          	lui	t2,0x10
8000815c:	f0038393          	addi	t2,t2,-256 # ff00 <_start-0x7fff0100>
80008160:	74729c63          	bne	t0,t2,800088b8 <fail>

80008164 <test_3512>:
80008164:	000011b7          	lui	gp,0x1
80008168:	db818193          	addi	gp,gp,-584 # db8 <_start-0x7ffff248>
8000816c:	00000213          	li	tp,0
80008170:	00002097          	auipc	ra,0x2
80008174:	f2208093          	addi	ra,ra,-222 # 8000a092 <lhu_tdat2>
80008178:	0020d703          	lhu	a4,2(ra)
8000817c:	00070313          	mv	t1,a4
80008180:	000013b7          	lui	t2,0x1
80008184:	ff038393          	addi	t2,t2,-16 # ff0 <_start-0x7ffff010>
80008188:	72731863          	bne	t1,t2,800088b8 <fail>
8000818c:	00120213          	addi	tp,tp,1 # 1 <_start-0x7fffffff>
80008190:	00200293          	li	t0,2
80008194:	fc521ee3          	bne	tp,t0,80008170 <test_3512+0xc>

80008198 <test_3513>:
80008198:	000011b7          	lui	gp,0x1
8000819c:	db918193          	addi	gp,gp,-583 # db9 <_start-0x7ffff247>
800081a0:	00000213          	li	tp,0
800081a4:	00002097          	auipc	ra,0x2
800081a8:	ef008093          	addi	ra,ra,-272 # 8000a094 <lhu_tdat3>
800081ac:	0020d703          	lhu	a4,2(ra)
800081b0:	00000013          	nop
800081b4:	00070313          	mv	t1,a4
800081b8:	0000f3b7          	lui	t2,0xf
800081bc:	00f38393          	addi	t2,t2,15 # f00f <_start-0x7fff0ff1>
800081c0:	6e731c63          	bne	t1,t2,800088b8 <fail>
800081c4:	00120213          	addi	tp,tp,1 # 1 <_start-0x7fffffff>
800081c8:	00200293          	li	t0,2
800081cc:	fc521ce3          	bne	tp,t0,800081a4 <test_3513+0xc>

800081d0 <test_3514>:
800081d0:	000011b7          	lui	gp,0x1
800081d4:	dba18193          	addi	gp,gp,-582 # dba <_start-0x7ffff246>
800081d8:	00000213          	li	tp,0
800081dc:	00002097          	auipc	ra,0x2
800081e0:	eb408093          	addi	ra,ra,-332 # 8000a090 <lhu_tdat>
800081e4:	0020d703          	lhu	a4,2(ra)
800081e8:	00000013          	nop
800081ec:	00000013          	nop
800081f0:	00070313          	mv	t1,a4
800081f4:	000103b7          	lui	t2,0x10
800081f8:	f0038393          	addi	t2,t2,-256 # ff00 <_start-0x7fff0100>
800081fc:	6a731e63          	bne	t1,t2,800088b8 <fail>
80008200:	00120213          	addi	tp,tp,1 # 1 <_start-0x7fffffff>
80008204:	00200293          	li	t0,2
80008208:	fc521ae3          	bne	tp,t0,800081dc <test_3514+0xc>

8000820c <test_3515>:
8000820c:	000011b7          	lui	gp,0x1
80008210:	dbb18193          	addi	gp,gp,-581 # dbb <_start-0x7ffff245>
80008214:	00000213          	li	tp,0
80008218:	00002097          	auipc	ra,0x2
8000821c:	e7a08093          	addi	ra,ra,-390 # 8000a092 <lhu_tdat2>
80008220:	0020d703          	lhu	a4,2(ra)
80008224:	000013b7          	lui	t2,0x1
80008228:	ff038393          	addi	t2,t2,-16 # ff0 <_start-0x7ffff010>
8000822c:	68771663          	bne	a4,t2,800088b8 <fail>
80008230:	00120213          	addi	tp,tp,1 # 1 <_start-0x7fffffff>
80008234:	00200293          	li	t0,2
80008238:	fe5210e3          	bne	tp,t0,80008218 <test_3515+0xc>

8000823c <test_3516>:
8000823c:	000011b7          	lui	gp,0x1
80008240:	dbc18193          	addi	gp,gp,-580 # dbc <_start-0x7ffff244>
80008244:	00000213          	li	tp,0
80008248:	00002097          	auipc	ra,0x2
8000824c:	e4c08093          	addi	ra,ra,-436 # 8000a094 <lhu_tdat3>
80008250:	00000013          	nop
80008254:	0020d703          	lhu	a4,2(ra)
80008258:	0000f3b7          	lui	t2,0xf
8000825c:	00f38393          	addi	t2,t2,15 # f00f <_start-0x7fff0ff1>
80008260:	64771c63          	bne	a4,t2,800088b8 <fail>
80008264:	00120213          	addi	tp,tp,1 # 1 <_start-0x7fffffff>
80008268:	00200293          	li	t0,2
8000826c:	fc521ee3          	bne	tp,t0,80008248 <test_3516+0xc>

80008270 <test_3517>:
80008270:	000011b7          	lui	gp,0x1
80008274:	dbd18193          	addi	gp,gp,-579 # dbd <_start-0x7ffff243>
80008278:	00000213          	li	tp,0
8000827c:	00002097          	auipc	ra,0x2
80008280:	e1408093          	addi	ra,ra,-492 # 8000a090 <lhu_tdat>
80008284:	00000013          	nop
80008288:	00000013          	nop
8000828c:	0020d703          	lhu	a4,2(ra)
80008290:	000103b7          	lui	t2,0x10
80008294:	f0038393          	addi	t2,t2,-256 # ff00 <_start-0x7fff0100>
80008298:	62771063          	bne	a4,t2,800088b8 <fail>
8000829c:	00120213          	addi	tp,tp,1 # 1 <_start-0x7fffffff>
800082a0:	00200293          	li	t0,2
800082a4:	fc521ce3          	bne	tp,t0,8000827c <test_3517+0xc>

800082a8 <test_3518>:
800082a8:	000011b7          	lui	gp,0x1
800082ac:	dbe18193          	addi	gp,gp,-578 # dbe <_start-0x7ffff242>
800082b0:	00002297          	auipc	t0,0x2
800082b4:	de028293          	addi	t0,t0,-544 # 8000a090 <lhu_tdat>
800082b8:	0002d103          	lhu	sp,0(t0)
800082bc:	00200113          	li	sp,2
800082c0:	00200393          	li	t2,2
800082c4:	5e711a63          	bne	sp,t2,800088b8 <fail>

800082c8 <test_3519>:
800082c8:	000011b7          	lui	gp,0x1
800082cc:	dbf18193          	addi	gp,gp,-577 # dbf <_start-0x7ffff241>
800082d0:	00002297          	auipc	t0,0x2
800082d4:	dc028293          	addi	t0,t0,-576 # 8000a090 <lhu_tdat>
800082d8:	0002d103          	lhu	sp,0(t0)
800082dc:	00000013          	nop
800082e0:	00200113          	li	sp,2
800082e4:	00200393          	li	t2,2
800082e8:	5c711863          	bne	sp,t2,800088b8 <fail>

800082ec <test_3602>:
800082ec:	000011b7          	lui	gp,0x1
800082f0:	e1218193          	addi	gp,gp,-494 # e12 <_start-0x7ffff1ee>
800082f4:	000000b7          	lui	ra,0x0
800082f8:	00000393          	li	t2,0
800082fc:	5a709e63          	bne	ra,t2,800088b8 <fail>

80008300 <test_3603>:
80008300:	000011b7          	lui	gp,0x1
80008304:	e1318193          	addi	gp,gp,-493 # e13 <_start-0x7ffff1ed>
80008308:	fffff0b7          	lui	ra,0xfffff
8000830c:	4010d093          	srai	ra,ra,0x1
80008310:	80000393          	li	t2,-2048
80008314:	5a709263          	bne	ra,t2,800088b8 <fail>

80008318 <test_3604>:
80008318:	000011b7          	lui	gp,0x1
8000831c:	e1418193          	addi	gp,gp,-492 # e14 <_start-0x7ffff1ec>
80008320:	7ffff0b7          	lui	ra,0x7ffff
80008324:	4140d093          	srai	ra,ra,0x14
80008328:	7ff00393          	li	t2,2047
8000832c:	58709663          	bne	ra,t2,800088b8 <fail>

80008330 <test_3605>:
80008330:	000011b7          	lui	gp,0x1
80008334:	e1518193          	addi	gp,gp,-491 # e15 <_start-0x7ffff1eb>
80008338:	800000b7          	lui	ra,0x80000
8000833c:	4140d093          	srai	ra,ra,0x14
80008340:	80000393          	li	t2,-2048
80008344:	56709a63          	bne	ra,t2,800088b8 <fail>

80008348 <test_3606>:
80008348:	000011b7          	lui	gp,0x1
8000834c:	e1618193          	addi	gp,gp,-490 # e16 <_start-0x7ffff1ea>
80008350:	80000037          	lui	zero,0x80000
80008354:	00000393          	li	t2,0
80008358:	56701063          	bne	zero,t2,800088b8 <fail>

8000835c <test_3702>:
8000835c:	000011b7          	lui	gp,0x1
80008360:	e7618193          	addi	gp,gp,-394 # e76 <_start-0x7ffff18a>
80008364:	00002097          	auipc	ra,0x2
80008368:	d3c08093          	addi	ra,ra,-708 # 8000a0a0 <sw_tdat>
8000836c:	00aa0137          	lui	sp,0xaa0
80008370:	0aa10113          	addi	sp,sp,170 # aa00aa <_start-0x7f55ff56>
80008374:	00000797          	auipc	a5,0x0
80008378:	01478793          	addi	a5,a5,20 # 80008388 <test_3702+0x2c>
8000837c:	0020a023          	sw	sp,0(ra)
80008380:	0000a703          	lw	a4,0(ra)
80008384:	0080006f          	j	8000838c <test_3702+0x30>
80008388:	00010713          	mv	a4,sp
8000838c:	00aa03b7          	lui	t2,0xaa0
80008390:	0aa38393          	addi	t2,t2,170 # aa00aa <_start-0x7f55ff56>
80008394:	52771263          	bne	a4,t2,800088b8 <fail>

80008398 <test_3703>:
80008398:	000011b7          	lui	gp,0x1
8000839c:	e7718193          	addi	gp,gp,-393 # e77 <_start-0x7ffff189>
800083a0:	00002097          	auipc	ra,0x2
800083a4:	d0008093          	addi	ra,ra,-768 # 8000a0a0 <sw_tdat>
800083a8:	aa00b137          	lui	sp,0xaa00b
800083ac:	a0010113          	addi	sp,sp,-1536 # aa00aa00 <_end+0x2a000930>
800083b0:	00000797          	auipc	a5,0x0
800083b4:	01478793          	addi	a5,a5,20 # 800083c4 <test_3703+0x2c>
800083b8:	0020a223          	sw	sp,4(ra)
800083bc:	0040a703          	lw	a4,4(ra)
800083c0:	0080006f          	j	800083c8 <test_3703+0x30>
800083c4:	00010713          	mv	a4,sp
800083c8:	aa00b3b7          	lui	t2,0xaa00b
800083cc:	a0038393          	addi	t2,t2,-1536 # aa00aa00 <_end+0x2a000930>
800083d0:	4e771463          	bne	a4,t2,800088b8 <fail>

800083d4 <test_3704>:
800083d4:	000011b7          	lui	gp,0x1
800083d8:	e7818193          	addi	gp,gp,-392 # e78 <_start-0x7ffff188>
800083dc:	00002097          	auipc	ra,0x2
800083e0:	cc408093          	addi	ra,ra,-828 # 8000a0a0 <sw_tdat>
800083e4:	0aa01137          	lui	sp,0xaa01
800083e8:	aa010113          	addi	sp,sp,-1376 # aa00aa0 <_start-0x755ff560>
800083ec:	00000797          	auipc	a5,0x0
800083f0:	01478793          	addi	a5,a5,20 # 80008400 <test_3704+0x2c>
800083f4:	0020a423          	sw	sp,8(ra)
800083f8:	0080a703          	lw	a4,8(ra)
800083fc:	0080006f          	j	80008404 <test_3704+0x30>
80008400:	00010713          	mv	a4,sp
80008404:	0aa013b7          	lui	t2,0xaa01
80008408:	aa038393          	addi	t2,t2,-1376 # aa00aa0 <_start-0x755ff560>
8000840c:	4a771663          	bne	a4,t2,800088b8 <fail>

80008410 <test_3705>:
80008410:	000011b7          	lui	gp,0x1
80008414:	e7918193          	addi	gp,gp,-391 # e79 <_start-0x7ffff187>
80008418:	00002097          	auipc	ra,0x2
8000841c:	c8808093          	addi	ra,ra,-888 # 8000a0a0 <sw_tdat>
80008420:	a00aa137          	lui	sp,0xa00aa
80008424:	00a10113          	addi	sp,sp,10 # a00aa00a <_end+0x2009ff3a>
80008428:	00000797          	auipc	a5,0x0
8000842c:	01478793          	addi	a5,a5,20 # 8000843c <test_3705+0x2c>
80008430:	0020a623          	sw	sp,12(ra)
80008434:	00c0a703          	lw	a4,12(ra)
80008438:	0080006f          	j	80008440 <test_3705+0x30>
8000843c:	00010713          	mv	a4,sp
80008440:	a00aa3b7          	lui	t2,0xa00aa
80008444:	00a38393          	addi	t2,t2,10 # a00aa00a <_end+0x2009ff3a>
80008448:	46771863          	bne	a4,t2,800088b8 <fail>

8000844c <test_3706>:
8000844c:	000011b7          	lui	gp,0x1
80008450:	e7a18193          	addi	gp,gp,-390 # e7a <_start-0x7ffff186>
80008454:	00002097          	auipc	ra,0x2
80008458:	c6808093          	addi	ra,ra,-920 # 8000a0bc <sw_tdat8>
8000845c:	00aa0137          	lui	sp,0xaa0
80008460:	0aa10113          	addi	sp,sp,170 # aa00aa <_start-0x7f55ff56>
80008464:	00000797          	auipc	a5,0x0
80008468:	01478793          	addi	a5,a5,20 # 80008478 <test_3706+0x2c>
8000846c:	fe20aa23          	sw	sp,-12(ra)
80008470:	ff40a703          	lw	a4,-12(ra)
80008474:	0080006f          	j	8000847c <test_3706+0x30>
80008478:	00010713          	mv	a4,sp
8000847c:	00aa03b7          	lui	t2,0xaa0
80008480:	0aa38393          	addi	t2,t2,170 # aa00aa <_start-0x7f55ff56>
80008484:	42771a63          	bne	a4,t2,800088b8 <fail>

80008488 <test_3707>:
80008488:	000011b7          	lui	gp,0x1
8000848c:	e7b18193          	addi	gp,gp,-389 # e7b <_start-0x7ffff185>
80008490:	00002097          	auipc	ra,0x2
80008494:	c2c08093          	addi	ra,ra,-980 # 8000a0bc <sw_tdat8>
80008498:	aa00b137          	lui	sp,0xaa00b
8000849c:	a0010113          	addi	sp,sp,-1536 # aa00aa00 <_end+0x2a000930>
800084a0:	00000797          	auipc	a5,0x0
800084a4:	01478793          	addi	a5,a5,20 # 800084b4 <test_3707+0x2c>
800084a8:	fe20ac23          	sw	sp,-8(ra)
800084ac:	ff80a703          	lw	a4,-8(ra)
800084b0:	0080006f          	j	800084b8 <test_3707+0x30>
800084b4:	00010713          	mv	a4,sp
800084b8:	aa00b3b7          	lui	t2,0xaa00b
800084bc:	a0038393          	addi	t2,t2,-1536 # aa00aa00 <_end+0x2a000930>
800084c0:	3e771c63          	bne	a4,t2,800088b8 <fail>

800084c4 <test_3708>:
800084c4:	000011b7          	lui	gp,0x1
800084c8:	e7c18193          	addi	gp,gp,-388 # e7c <_start-0x7ffff184>
800084cc:	00002097          	auipc	ra,0x2
800084d0:	bf008093          	addi	ra,ra,-1040 # 8000a0bc <sw_tdat8>
800084d4:	0aa01137          	lui	sp,0xaa01
800084d8:	aa010113          	addi	sp,sp,-1376 # aa00aa0 <_start-0x755ff560>
800084dc:	00000797          	auipc	a5,0x0
800084e0:	01478793          	addi	a5,a5,20 # 800084f0 <test_3708+0x2c>
800084e4:	fe20ae23          	sw	sp,-4(ra)
800084e8:	ffc0a703          	lw	a4,-4(ra)
800084ec:	0080006f          	j	800084f4 <test_3708+0x30>
800084f0:	00010713          	mv	a4,sp
800084f4:	0aa013b7          	lui	t2,0xaa01
800084f8:	aa038393          	addi	t2,t2,-1376 # aa00aa0 <_start-0x755ff560>
800084fc:	3a771e63          	bne	a4,t2,800088b8 <fail>

80008500 <test_3709>:
80008500:	000011b7          	lui	gp,0x1
80008504:	e7d18193          	addi	gp,gp,-387 # e7d <_start-0x7ffff183>
80008508:	00002097          	auipc	ra,0x2
8000850c:	bb408093          	addi	ra,ra,-1100 # 8000a0bc <sw_tdat8>
80008510:	a00aa137          	lui	sp,0xa00aa
80008514:	00a10113          	addi	sp,sp,10 # a00aa00a <_end+0x2009ff3a>
80008518:	00000797          	auipc	a5,0x0
8000851c:	01478793          	addi	a5,a5,20 # 8000852c <test_3709+0x2c>
80008520:	0020a023          	sw	sp,0(ra)
80008524:	0000a703          	lw	a4,0(ra)
80008528:	0080006f          	j	80008530 <test_3709+0x30>
8000852c:	00010713          	mv	a4,sp
80008530:	a00aa3b7          	lui	t2,0xa00aa
80008534:	00a38393          	addi	t2,t2,10 # a00aa00a <_end+0x2009ff3a>
80008538:	38771063          	bne	a4,t2,800088b8 <fail>

8000853c <test_3710>:
8000853c:	000011b7          	lui	gp,0x1
80008540:	e7e18193          	addi	gp,gp,-386 # e7e <_start-0x7ffff182>
80008544:	00002097          	auipc	ra,0x2
80008548:	b7c08093          	addi	ra,ra,-1156 # 8000a0c0 <sw_tdat9>
8000854c:	12345137          	lui	sp,0x12345
80008550:	67810113          	addi	sp,sp,1656 # 12345678 <_start-0x6dcba988>
80008554:	fe008213          	addi	tp,ra,-32
80008558:	02222023          	sw	sp,32(tp) # 20 <_start-0x7fffffe0>
8000855c:	0000a283          	lw	t0,0(ra)
80008560:	123453b7          	lui	t2,0x12345
80008564:	67838393          	addi	t2,t2,1656 # 12345678 <_start-0x6dcba988>
80008568:	34729863          	bne	t0,t2,800088b8 <fail>

8000856c <test_3711>:
8000856c:	000011b7          	lui	gp,0x1
80008570:	e7f18193          	addi	gp,gp,-385 # e7f <_start-0x7ffff181>
80008574:	00002097          	auipc	ra,0x2
80008578:	b4c08093          	addi	ra,ra,-1204 # 8000a0c0 <sw_tdat9>
8000857c:	58213137          	lui	sp,0x58213
80008580:	09810113          	addi	sp,sp,152 # 58213098 <_start-0x27decf68>
80008584:	ffd08093          	addi	ra,ra,-3
80008588:	0020a3a3          	sw	sp,7(ra)
8000858c:	00002217          	auipc	tp,0x2
80008590:	b3820213          	addi	tp,tp,-1224 # 8000a0c4 <sw_tdat10>
80008594:	00022283          	lw	t0,0(tp) # 0 <_start-0x80000000>
80008598:	582133b7          	lui	t2,0x58213
8000859c:	09838393          	addi	t2,t2,152 # 58213098 <_start-0x27decf68>
800085a0:	30729c63          	bne	t0,t2,800088b8 <fail>

800085a4 <test_3712>:
800085a4:	000011b7          	lui	gp,0x1
800085a8:	e8018193          	addi	gp,gp,-384 # e80 <_start-0x7ffff180>
800085ac:	00000213          	li	tp,0
800085b0:	aabbd0b7          	lui	ra,0xaabbd
800085b4:	cdd08093          	addi	ra,ra,-803 # aabbccdd <_end+0x2abb2c0d>
800085b8:	00002117          	auipc	sp,0x2
800085bc:	ae810113          	addi	sp,sp,-1304 # 8000a0a0 <sw_tdat>
800085c0:	00112023          	sw	ra,0(sp)
800085c4:	00012703          	lw	a4,0(sp)
800085c8:	aabbd3b7          	lui	t2,0xaabbd
800085cc:	cdd38393          	addi	t2,t2,-803 # aabbccdd <_end+0x2abb2c0d>
800085d0:	2e771463          	bne	a4,t2,800088b8 <fail>
800085d4:	00120213          	addi	tp,tp,1 # 1 <_start-0x7fffffff>
800085d8:	00200293          	li	t0,2
800085dc:	fc521ae3          	bne	tp,t0,800085b0 <test_3712+0xc>

800085e0 <test_3713>:
800085e0:	000011b7          	lui	gp,0x1
800085e4:	e8118193          	addi	gp,gp,-383 # e81 <_start-0x7ffff17f>
800085e8:	00000213          	li	tp,0
800085ec:	daabc0b7          	lui	ra,0xdaabc
800085f0:	ccd08093          	addi	ra,ra,-819 # daabbccd <_end+0x5aab1bfd>
800085f4:	00002117          	auipc	sp,0x2
800085f8:	aac10113          	addi	sp,sp,-1364 # 8000a0a0 <sw_tdat>
800085fc:	00000013          	nop
80008600:	00112223          	sw	ra,4(sp)
80008604:	00412703          	lw	a4,4(sp)
80008608:	daabc3b7          	lui	t2,0xdaabc
8000860c:	ccd38393          	addi	t2,t2,-819 # daabbccd <_end+0x5aab1bfd>
80008610:	2a771463          	bne	a4,t2,800088b8 <fail>
80008614:	00120213          	addi	tp,tp,1 # 1 <_start-0x7fffffff>
80008618:	00200293          	li	t0,2
8000861c:	fc5218e3          	bne	tp,t0,800085ec <test_3713+0xc>

80008620 <test_3714>:
80008620:	000011b7          	lui	gp,0x1
80008624:	e8218193          	addi	gp,gp,-382 # e82 <_start-0x7ffff17e>
80008628:	00000213          	li	tp,0
8000862c:	ddaac0b7          	lui	ra,0xddaac
80008630:	bcc08093          	addi	ra,ra,-1076 # ddaabbcc <_end+0x5daa1afc>
80008634:	00002117          	auipc	sp,0x2
80008638:	a6c10113          	addi	sp,sp,-1428 # 8000a0a0 <sw_tdat>
8000863c:	00000013          	nop
80008640:	00000013          	nop
80008644:	00112423          	sw	ra,8(sp)
80008648:	00812703          	lw	a4,8(sp)
8000864c:	ddaac3b7          	lui	t2,0xddaac
80008650:	bcc38393          	addi	t2,t2,-1076 # ddaabbcc <_end+0x5daa1afc>
80008654:	26771263          	bne	a4,t2,800088b8 <fail>
80008658:	00120213          	addi	tp,tp,1 # 1 <_start-0x7fffffff>
8000865c:	00200293          	li	t0,2
80008660:	fc5216e3          	bne	tp,t0,8000862c <test_3714+0xc>

80008664 <test_3715>:
80008664:	000011b7          	lui	gp,0x1
80008668:	e8318193          	addi	gp,gp,-381 # e83 <_start-0x7ffff17d>
8000866c:	00000213          	li	tp,0
80008670:	cddab0b7          	lui	ra,0xcddab
80008674:	bbc08093          	addi	ra,ra,-1092 # cddaabbc <_end+0x4dda0aec>
80008678:	00000013          	nop
8000867c:	00002117          	auipc	sp,0x2
80008680:	a2410113          	addi	sp,sp,-1500 # 8000a0a0 <sw_tdat>
80008684:	00112623          	sw	ra,12(sp)
80008688:	00c12703          	lw	a4,12(sp)
8000868c:	cddab3b7          	lui	t2,0xcddab
80008690:	bbc38393          	addi	t2,t2,-1092 # cddaabbc <_end+0x4dda0aec>
80008694:	22771263          	bne	a4,t2,800088b8 <fail>
80008698:	00120213          	addi	tp,tp,1 # 1 <_start-0x7fffffff>
8000869c:	00200293          	li	t0,2
800086a0:	fc5218e3          	bne	tp,t0,80008670 <test_3715+0xc>

800086a4 <test_3716>:
800086a4:	000011b7          	lui	gp,0x1
800086a8:	e8418193          	addi	gp,gp,-380 # e84 <_start-0x7ffff17c>
800086ac:	00000213          	li	tp,0
800086b0:	ccddb0b7          	lui	ra,0xccddb
800086b4:	abb08093          	addi	ra,ra,-1349 # ccddaabb <_end+0x4cdd09eb>
800086b8:	00000013          	nop
800086bc:	00002117          	auipc	sp,0x2
800086c0:	9e410113          	addi	sp,sp,-1564 # 8000a0a0 <sw_tdat>
800086c4:	00000013          	nop
800086c8:	00112823          	sw	ra,16(sp)
800086cc:	01012703          	lw	a4,16(sp)
800086d0:	ccddb3b7          	lui	t2,0xccddb
800086d4:	abb38393          	addi	t2,t2,-1349 # ccddaabb <_end+0x4cdd09eb>
800086d8:	1e771063          	bne	a4,t2,800088b8 <fail>
800086dc:	00120213          	addi	tp,tp,1 # 1 <_start-0x7fffffff>
800086e0:	00200293          	li	t0,2
800086e4:	fc5216e3          	bne	tp,t0,800086b0 <test_3716+0xc>

800086e8 <test_3717>:
800086e8:	000011b7          	lui	gp,0x1
800086ec:	e8518193          	addi	gp,gp,-379 # e85 <_start-0x7ffff17b>
800086f0:	00000213          	li	tp,0
800086f4:	bccde0b7          	lui	ra,0xbccde
800086f8:	aab08093          	addi	ra,ra,-1365 # bccddaab <_end+0x3ccd39db>
800086fc:	00000013          	nop
80008700:	00000013          	nop
80008704:	00002117          	auipc	sp,0x2
80008708:	99c10113          	addi	sp,sp,-1636 # 8000a0a0 <sw_tdat>
8000870c:	00112a23          	sw	ra,20(sp)
80008710:	01412703          	lw	a4,20(sp)
80008714:	bccde3b7          	lui	t2,0xbccde
80008718:	aab38393          	addi	t2,t2,-1365 # bccddaab <_end+0x3ccd39db>
8000871c:	18771e63          	bne	a4,t2,800088b8 <fail>
80008720:	00120213          	addi	tp,tp,1 # 1 <_start-0x7fffffff>
80008724:	00200293          	li	t0,2
80008728:	fc5216e3          	bne	tp,t0,800086f4 <test_3717+0xc>

8000872c <test_3718>:
8000872c:	000011b7          	lui	gp,0x1
80008730:	e8618193          	addi	gp,gp,-378 # e86 <_start-0x7ffff17a>
80008734:	00000213          	li	tp,0
80008738:	00002117          	auipc	sp,0x2
8000873c:	96810113          	addi	sp,sp,-1688 # 8000a0a0 <sw_tdat>
80008740:	001120b7          	lui	ra,0x112
80008744:	23308093          	addi	ra,ra,563 # 112233 <_start-0x7feeddcd>
80008748:	00112023          	sw	ra,0(sp)
8000874c:	00012703          	lw	a4,0(sp)
80008750:	001123b7          	lui	t2,0x112
80008754:	23338393          	addi	t2,t2,563 # 112233 <_start-0x7feeddcd>
80008758:	16771063          	bne	a4,t2,800088b8 <fail>
8000875c:	00120213          	addi	tp,tp,1 # 1 <_start-0x7fffffff>
80008760:	00200293          	li	t0,2
80008764:	fc521ae3          	bne	tp,t0,80008738 <test_3718+0xc>

80008768 <test_3719>:
80008768:	000011b7          	lui	gp,0x1
8000876c:	e8718193          	addi	gp,gp,-377 # e87 <_start-0x7ffff179>
80008770:	00000213          	li	tp,0
80008774:	00002117          	auipc	sp,0x2
80008778:	92c10113          	addi	sp,sp,-1748 # 8000a0a0 <sw_tdat>
8000877c:	300110b7          	lui	ra,0x30011
80008780:	22308093          	addi	ra,ra,547 # 30011223 <_start-0x4ffeeddd>
80008784:	00000013          	nop
80008788:	00112223          	sw	ra,4(sp)
8000878c:	00412703          	lw	a4,4(sp)
80008790:	300113b7          	lui	t2,0x30011
80008794:	22338393          	addi	t2,t2,547 # 30011223 <_start-0x4ffeeddd>
80008798:	12771063          	bne	a4,t2,800088b8 <fail>
8000879c:	00120213          	addi	tp,tp,1 # 1 <_start-0x7fffffff>
800087a0:	00200293          	li	t0,2
800087a4:	fc5218e3          	bne	tp,t0,80008774 <test_3719+0xc>

800087a8 <test_3720>:
800087a8:	000011b7          	lui	gp,0x1
800087ac:	e8818193          	addi	gp,gp,-376 # e88 <_start-0x7ffff178>
800087b0:	00000213          	li	tp,0
800087b4:	00002117          	auipc	sp,0x2
800087b8:	8ec10113          	addi	sp,sp,-1812 # 8000a0a0 <sw_tdat>
800087bc:	330010b7          	lui	ra,0x33001
800087c0:	12208093          	addi	ra,ra,290 # 33001122 <_start-0x4cffeede>
800087c4:	00000013          	nop
800087c8:	00000013          	nop
800087cc:	00112423          	sw	ra,8(sp)
800087d0:	00812703          	lw	a4,8(sp)
800087d4:	330013b7          	lui	t2,0x33001
800087d8:	12238393          	addi	t2,t2,290 # 33001122 <_start-0x4cffeede>
800087dc:	0c771e63          	bne	a4,t2,800088b8 <fail>
800087e0:	00120213          	addi	tp,tp,1 # 1 <_start-0x7fffffff>
800087e4:	00200293          	li	t0,2
800087e8:	fc5216e3          	bne	tp,t0,800087b4 <test_3720+0xc>

800087ec <test_3721>:
800087ec:	000011b7          	lui	gp,0x1
800087f0:	e8918193          	addi	gp,gp,-375 # e89 <_start-0x7ffff177>
800087f4:	00000213          	li	tp,0
800087f8:	00002117          	auipc	sp,0x2
800087fc:	8a810113          	addi	sp,sp,-1880 # 8000a0a0 <sw_tdat>
80008800:	00000013          	nop
80008804:	233000b7          	lui	ra,0x23300
80008808:	11208093          	addi	ra,ra,274 # 23300112 <_start-0x5ccffeee>
8000880c:	00112623          	sw	ra,12(sp)
80008810:	00c12703          	lw	a4,12(sp)
80008814:	233003b7          	lui	t2,0x23300
80008818:	11238393          	addi	t2,t2,274 # 23300112 <_start-0x5ccffeee>
8000881c:	08771e63          	bne	a4,t2,800088b8 <fail>
80008820:	00120213          	addi	tp,tp,1 # 1 <_start-0x7fffffff>
80008824:	00200293          	li	t0,2
80008828:	fc5218e3          	bne	tp,t0,800087f8 <test_3721+0xc>

8000882c <test_3722>:
8000882c:	000011b7          	lui	gp,0x1
80008830:	e8a18193          	addi	gp,gp,-374 # e8a <_start-0x7ffff176>
80008834:	00000213          	li	tp,0
80008838:	00002117          	auipc	sp,0x2
8000883c:	86810113          	addi	sp,sp,-1944 # 8000a0a0 <sw_tdat>
80008840:	00000013          	nop
80008844:	223300b7          	lui	ra,0x22330
80008848:	01108093          	addi	ra,ra,17 # 22330011 <_start-0x5dccffef>
8000884c:	00000013          	nop
80008850:	00112823          	sw	ra,16(sp)
80008854:	01012703          	lw	a4,16(sp)
80008858:	223303b7          	lui	t2,0x22330
8000885c:	01138393          	addi	t2,t2,17 # 22330011 <_start-0x5dccffef>
80008860:	04771c63          	bne	a4,t2,800088b8 <fail>
80008864:	00120213          	addi	tp,tp,1 # 1 <_start-0x7fffffff>
80008868:	00200293          	li	t0,2
8000886c:	fc5216e3          	bne	tp,t0,80008838 <test_3722+0xc>

80008870 <test_3723>:
80008870:	000011b7          	lui	gp,0x1
80008874:	e8b18193          	addi	gp,gp,-373 # e8b <_start-0x7ffff175>
80008878:	00000213          	li	tp,0
8000887c:	00002117          	auipc	sp,0x2
80008880:	82410113          	addi	sp,sp,-2012 # 8000a0a0 <sw_tdat>
80008884:	00000013          	nop
80008888:	00000013          	nop
8000888c:	122330b7          	lui	ra,0x12233
80008890:	00108093          	addi	ra,ra,1 # 12233001 <_start-0x6ddccfff>
80008894:	00112a23          	sw	ra,20(sp)
80008898:	01412703          	lw	a4,20(sp)
8000889c:	122333b7          	lui	t2,0x12233
800088a0:	00138393          	addi	t2,t2,1 # 12233001 <_start-0x6ddccfff>
800088a4:	00771a63          	bne	a4,t2,800088b8 <fail>
800088a8:	00120213          	addi	tp,tp,1 # 1 <_start-0x7fffffff>
800088ac:	00200293          	li	t0,2
800088b0:	fc5216e3          	bne	tp,t0,8000887c <test_3723+0xc>
800088b4:	00301a63          	bne	zero,gp,800088c8 <pass>

800088b8 <fail>:
800088b8:	803002b7          	lui	t0,0x80300
800088bc:	55500313          	li	t1,1365
800088c0:	0062a023          	sw	t1,0(t0) # 80300000 <_end+0x2f5f30>
800088c4:	f40f706f          	j	80000004 <loop>

800088c8 <pass>:
800088c8:	803002b7          	lui	t0,0x80300
800088cc:	66600313          	li	t1,1638
800088d0:	0062a023          	sw	t1,0(t0) # 80300000 <_end+0x2f5f30>
800088d4:	f30f706f          	j	80000004 <loop>
800088d8:	0000                	unimp
800088da:	0000                	unimp
800088dc:	0000                	unimp
800088de:	0000                	unimp
800088e0:	0000                	unimp
800088e2:	0000                	unimp
800088e4:	0000                	unimp
800088e6:	0000                	unimp
800088e8:	0000                	unimp
800088ea:	0000                	unimp
800088ec:	0000                	unimp
800088ee:	0000                	unimp
800088f0:	0000                	unimp
800088f2:	0000                	unimp
800088f4:	0000                	unimp
800088f6:	0000                	unimp
800088f8:	0000                	unimp
800088fa:	0000                	unimp

Disassembly of section .data:

8000a000 <begin_signature>:
8000a000:	                	0xff

8000a001 <lb_tdat2>:
8000a001:	                	fsw	fs0,32(s0)

8000a002 <lb_tdat3>:
8000a002:	                	addi	a2,sp,988

8000a003 <lb_tdat4>:
8000a003:	0000000f          	fence	unknown,unknown
8000a007:	0000                	unimp
8000a009:	0000                	unimp
8000a00b:	0000                	unimp
8000a00d:	0000                	unimp
8000a00f:	                	fsw	fs0,24(a4)

8000a010 <sb_tdat>:
8000a010:	          	jal	t6,8000870e <test_3717+0x26>

8000a011 <sb_tdat2>:
8000a011:	          	jal	t6,8000870f <test_3717+0x27>

8000a012 <sb_tdat3>:
8000a012:	          	jal	t6,80008710 <test_3717+0x28>

8000a013 <sb_tdat4>:
8000a013:	          	jal	t6,80008711 <test_3717+0x29>

8000a014 <sb_tdat5>:
8000a014:	          	jal	t6,80008712 <test_3717+0x2a>

8000a015 <sb_tdat6>:
8000a015:	          	jal	t6,80008713 <test_3717+0x2b>

8000a016 <sb_tdat7>:
8000a016:	          	jal	t6,80008714 <test_3717+0x2c>

8000a017 <sb_tdat8>:
8000a017:	          	jal	t6,80108025 <_end+0xfdf55>

8000a018 <sb_tdat9>:
8000a018:	          	jal	t6,80018018 <_end+0xdf48>

8000a019 <sb_tdat10>:
8000a019:	000000ef          	jal	ra,8000a019 <sb_tdat10>
8000a01d:	0000                	unimp
8000a01f:	                	0x9300

8000a020 <fence_i_insn>:
8000a020:	14d68693          	addi	a3,a3,333
8000a024:	0de68693          	addi	a3,a3,222
8000a028:	000807e7          	jalr	a5,a6
8000a02c:	22b68693          	addi	a3,a3,555
8000a030:	000807e7          	jalr	a5,a6
8000a034:	0000                	unimp
8000a036:	0000                	unimp
8000a038:	0000                	unimp
8000a03a:	0000                	unimp
8000a03c:	0000                	unimp
8000a03e:	0000                	unimp

8000a040 <lh_tdat>:
8000a040:	00ff                	0xff

8000a042 <lh_tdat2>:
8000a042:	ff00                	fsw	fs0,56(a4)

8000a044 <lh_tdat3>:
8000a044:	0ff0                	addi	a2,sp,988

8000a046 <lh_tdat4>:
8000a046:	0000f00f          	0xf00f
8000a04a:	0000                	unimp
8000a04c:	0000                	unimp
8000a04e:	0000                	unimp

8000a050 <lw_tdat>:
8000a050:	00ff                	0xff
8000a052:	00ff                	0xff

8000a054 <lw_tdat2>:
8000a054:	ff00                	fsw	fs0,56(a4)
8000a056:	ff00                	fsw	fs0,56(a4)

8000a058 <lw_tdat3>:
8000a058:	0ff0                	addi	a2,sp,988
8000a05a:	0ff0                	addi	a2,sp,988

8000a05c <lw_tdat4>:
8000a05c:	f00ff00f          	0xf00ff00f

8000a060 <sh_tdat>:
8000a060:	          	jal	t4,8000544e <test_2428+0x16>

8000a062 <sh_tdat2>:
8000a062:	          	jal	t4,80005450 <test_2428+0x18>

8000a064 <sh_tdat3>:
8000a064:	          	jal	t4,80005452 <test_2428+0x1a>

8000a066 <sh_tdat4>:
8000a066:	          	jal	t4,80005454 <test_2428+0x1c>

8000a068 <sh_tdat5>:
8000a068:	          	jal	t4,80005456 <test_2428+0x1e>

8000a06a <sh_tdat6>:
8000a06a:	          	jal	t4,80005458 <test_2428+0x20>

8000a06c <sh_tdat7>:
8000a06c:	          	jal	t4,8000545a <test_2428+0x22>

8000a06e <sh_tdat8>:
8000a06e:	          	jal	t4,8000545c <test_2428+0x24>

8000a070 <sh_tdat9>:
8000a070:	          	jal	t4,8000545e <test_2428+0x26>

8000a072 <sh_tdat10>:
8000a072:	0000beef          	jal	t4,80015072 <_end+0xafa2>
8000a076:	0000                	unimp
8000a078:	0000                	unimp
8000a07a:	0000                	unimp
8000a07c:	0000                	unimp
8000a07e:	0000                	unimp

8000a080 <lbu_tdat>:
8000a080:	                	0xff

8000a081 <lbu_tdat2>:
8000a081:	                	fsw	fs0,32(s0)

8000a082 <lbu_tdat3>:
8000a082:	                	addi	a2,sp,988

8000a083 <lbu_tdat4>:
8000a083:	0000000f          	fence	unknown,unknown
8000a087:	0000                	unimp
8000a089:	0000                	unimp
8000a08b:	0000                	unimp
8000a08d:	0000                	unimp
8000a08f:	                	fsw	fs0,56(a4)

8000a090 <lhu_tdat>:
8000a090:	00ff                	0xff

8000a092 <lhu_tdat2>:
8000a092:	ff00                	fsw	fs0,56(a4)

8000a094 <lhu_tdat3>:
8000a094:	0ff0                	addi	a2,sp,988

8000a096 <lhu_tdat4>:
8000a096:	0000f00f          	0xf00f
8000a09a:	0000                	unimp
8000a09c:	0000                	unimp
8000a09e:	0000                	unimp

8000a0a0 <sw_tdat>:
8000a0a0:	deadbeef          	jal	t4,7ffe568a <_start-0x1a976>

8000a0a4 <sw_tdat2>:
8000a0a4:	deadbeef          	jal	t4,7ffe568e <_start-0x1a972>

8000a0a8 <sw_tdat3>:
8000a0a8:	deadbeef          	jal	t4,7ffe5692 <_start-0x1a96e>

8000a0ac <sw_tdat4>:
8000a0ac:	deadbeef          	jal	t4,7ffe5696 <_start-0x1a96a>

8000a0b0 <sw_tdat5>:
8000a0b0:	deadbeef          	jal	t4,7ffe569a <_start-0x1a966>

8000a0b4 <sw_tdat6>:
8000a0b4:	deadbeef          	jal	t4,7ffe569e <_start-0x1a962>

8000a0b8 <sw_tdat7>:
8000a0b8:	deadbeef          	jal	t4,7ffe56a2 <_start-0x1a95e>

8000a0bc <sw_tdat8>:
8000a0bc:	deadbeef          	jal	t4,7ffe56a6 <_start-0x1a95a>

8000a0c0 <sw_tdat9>:
8000a0c0:	deadbeef          	jal	t4,7ffe56aa <_start-0x1a956>

8000a0c4 <sw_tdat10>:
8000a0c4:	deadbeef          	jal	t4,7ffe56ae <_start-0x1a952>
8000a0c8:	0000                	unimp
8000a0ca:	0000                	unimp
8000a0cc:	0000                	unimp
8000a0ce:	0000                	unimp
